(lp0
(lp1
(dp2
(((S'light'
p3
S'red'
p4
tp5
(S'oncoming'
p6
Ntp7
(S'right'
p8
Ntp9
(S'left'
p10
Ntp11
g8
tp12
g10
tp13
I-1
saI1
aa(lp14
(dp15
(((g3
g4
tp16
(g6
Ntp17
(g8
g8
tp18
(g10
Ntp19
g8
tp20
S'forward'
p21
tp22
I-1
saI2
aa(lp23
(dp24
(((g3
g4
tp25
(g6
Ntp26
(g8
Ntp27
(g10
Ntp28
g8
tp29
Ntp30
I1
saI3
aa(lp31
(dp32
(((g3
g4
tp33
(g6
Ntp34
(g8
Ntp35
(g10
Ntp36
g8
tp37
g10
tp38
F-1.0
saI4
aa(lp39
(dp40
(((g3
S'green'
p41
tp42
(g6
Ntp43
(g8
Ntp44
(g10
Ntp45
g8
tp46
Ntp47
I1
saI5
aa(lp48
(dp49
(((g3
g41
tp50
(g6
Ntp51
(g8
Ntp52
(g10
Ntp53
g8
tp54
Ntp55
F1.0
saI6
aa(lp56
(dp57
(((g3
g41
tp58
(g6
Ntp59
(g8
Ntp60
(g10
Ntp61
g8
tp62
Ntp63
F1.0
saI7
aa(lp64
(dp65
(((g3
g41
tp66
(g6
Ntp67
(g8
Ntp68
(g10
Ntp69
g8
tp70
Ntp71
F1.0
saI8
aa(lp72
(dp73
(((g3
g4
tp74
(g6
Ntp75
(g8
Ntp76
(g10
Ntp77
g8
tp78
Ntp79
F1.0
saI9
aa(lp80
(dp81
(((g3
g4
tp82
(g6
Ntp83
(g8
Ntp84
(g10
Ntp85
g8
tp86
g21
tp87
I-1
saI10
aa(lp88
(dp89
(((g3
g4
tp90
(g6
Ntp91
(g8
Ntp92
(g10
Ntp93
g8
tp94
Ntp95
F1.0
saI11
aa(lp96
(dp97
(((g3
g4
tp98
(g6
Ntp99
(g8
Ntp100
(g10
Ntp101
g8
tp102
Ntp103
F1.0
saI12
aa(lp104
(dp105
(((g3
g41
tp106
(g6
Ntp107
(g8
Ntp108
(g10
Ntp109
g8
tp110
g21
tp111
F0.5
saI13
aa(lp112
(dp113
(((g3
g4
tp114
(g6
Ntp115
(g8
Ntp116
(g10
Ntp117
g21
tp118
g8
tp119
F0.5
saI14
aa(lp120
(dp121
(((g3
g41
tp122
(g6
Ntp123
(g8
Ntp124
(g10
Ntp125
g8
tp126
Ntp127
F1.0
saI15
aa(lp128
(dp129
(((g3
g4
tp130
(g6
Ntp131
(g8
Ntp132
(g10
Ntp133
g8
tp134
g10
tp135
F-1.0
saI16
aa(lp136
(dp137
(((g3
g4
tp138
(g6
Ntp139
(g8
Ntp140
(g10
Ntp141
g8
tp142
g10
tp143
F-1.0
saI17
aa(lp144
(dp145
(((g3
g4
tp146
(g6
Ntp147
(g8
Ntp148
(g10
Ntp149
g8
tp150
g10
tp151
F-1.0
saI18
aa(lp152
(dp153
(((g3
g4
tp154
(g6
Ntp155
(g8
Ntp156
(g10
Ntp157
g8
tp158
Ntp159
F1.0
saI19
aa(lp160
(dp161
(((g3
g4
tp162
(g6
Ntp163
(g8
Ntp164
(g10
Ntp165
g8
tp166
Ntp167
F1.0
saI20
aa(lp168
(dp169
(((g3
g41
tp170
(g6
Ntp171
(g8
Ntp172
(g10
Ntp173
g8
tp174
Ntp175
F1.0
saI21
aa(lp176
(dp177
(((g3
g41
tp178
(g6
Ntp179
(g8
Ntp180
(g10
Ntp181
g8
tp182
g21
tp183
F0.5
saI22
aa(lp184
(dp185
(((g3
g4
tp186
(g6
g10
tp187
(g8
Ntp188
(g10
Ntp189
g8
tp190
g10
tp191
I-1
saI23
aa(lp192
(dp193
(((g3
g4
tp194
(g6
g10
tp195
(g8
Ntp196
(g10
Ntp197
g8
tp198
g10
tp199
F-1.0
saI24
aa(lp200
(dp201
(((g3
g4
tp202
(g6
g10
tp203
(g8
Ntp204
(g10
Ntp205
g8
tp206
g10
tp207
F-1.0
saI25
aa(lp208
(dp209
(((g3
g41
tp210
(g6
g10
tp211
(g8
Ntp212
(g10
Ntp213
g8
tp214
g10
tp215
F0.5
saI26
aa(lp216
(dp217
(((g3
g41
tp218
(g6
Ntp219
(g8
g8
tp220
(g10
Ntp221
g10
tp222
g8
tp223
F0.5
saI27
aa(lp224
(dp225
(((g3
g4
tp226
(g6
Ntp227
(g8
Ntp228
(g10
Ntp229
g21
tp230
g8
tp231
F0.5
saI28
aa(lp232
(dp233
(((g3
g4
tp234
(g6
Ntp235
(g8
Ntp236
(g10
Ntp237
g8
tp238
Ntp239
F1.0
saI29
aa(lp240
(dp241
(((g3
g4
tp242
(g6
Ntp243
(g8
Ntp244
(g10
Ntp245
g8
tp246
g21
tp247
F-1.0
saI30
aa(lp248
(dp249
(((g3
g41
tp250
(g6
Ntp251
(g8
Ntp252
(g10
Ntp253
g8
tp254
g21
tp255
F0.5
saI31
aa(lp256
(dp257
(((g3
g4
tp258
(g6
Ntp259
(g8
Ntp260
(g10
Ntp261
g8
tp262
Ntp263
F1.0
saI32
aa(lp264
(dp265
(((g3
g4
tp266
(g6
Ntp267
(g8
Ntp268
(g10
Ntp269
g8
tp270
g10
tp271
F-1.0
saI33
aa(lp272
(dp273
(((g3
g4
tp274
(g6
Ntp275
(g8
Ntp276
(g10
Ntp277
g8
tp278
Ntp279
F1.0
saI34
aa(lp280
(dp281
(((g3
g41
tp282
(g6
Ntp283
(g8
Ntp284
(g10
Ntp285
g8
tp286
g8
tp287
I2
saI35
aa(lp288
(dp289
(((g3
g41
tp290
(g6
Ntp291
(g8
Ntp292
(g10
Ntp293
g8
tp294
g8
tp295
F2.0
saI36
aa(lp296
(dp297
(((g3
g4
tp298
(g6
Ntp299
(g8
Ntp300
(g10
Ntp301
g10
tp302
Ntp303
I1
saI37
aa(lp304
(dp305
(((g3
g4
tp306
(g6
Ntp307
(g8
Ntp308
(g10
Ntp309
g10
tp310
Ntp311
F1.0
saI38
aa(lp312
(dp313
(((g3
g41
tp314
(g6
Ntp315
(g8
Ntp316
(g10
Ntp317
g10
tp318
g10
tp319
I2
saI39
aa(lp320
(dp321
(((g3
g4
tp322
(g6
Ntp323
(g8
Ntp324
(g10
Ntp325
g8
tp326
Ntp327
F1.0
saI40
aa(lp328
(dp329
(((g3
g4
tp330
(g6
Ntp331
(g8
Ntp332
(g10
Ntp333
g8
tp334
g8
tp335
I2
saI41
aa(lp336
(dp337
(((g3
g4
tp338
(g6
Ntp339
(g8
Ntp340
(g10
Ntp341
g10
tp342
g10
tp343
I-1
saI42
aa(lp344
(dp345
(((g3
g4
tp346
(g6
Ntp347
(g8
Ntp348
(g10
Ntp349
g10
tp350
g21
tp351
I-1
saI43
aa(lp352
(dp353
(((g3
g4
tp354
(g6
Ntp355
(g8
Ntp356
(g10
Ntp357
g10
tp358
Ntp359
F1.0
saI44
aa(lp360
(dp361
(((g3
g4
tp362
(g6
Ntp363
(g8
Ntp364
(g10
Ntp365
g10
tp366
Ntp367
F1.0
saI45
aa(lp368
(dp369
(((g3
g4
tp370
(g6
Ntp371
(g8
Ntp372
(g10
Ntp373
g10
tp374
Ntp375
F1.0
saI46
aa(lp376
(dp377
(((g3
g41
tp378
(g6
Ntp379
(g8
g21
tp380
(g10
Ntp381
g10
tp382
g8
tp383
F0.5
saI47
aa(lp384
(dp385
(((g3
g4
tp386
(g6
Ntp387
(g8
Ntp388
(g10
Ntp389
g21
tp390
g8
tp391
F0.5
saI48
aa(lp392
(dp393
(((g3
g4
tp394
(g6
Ntp395
(g8
Ntp396
(g10
Ntp397
g8
tp398
g8
tp399
F2.0
saI49
aa(lp400
(dp401
(((g3
g4
tp402
(g6
Ntp403
(g8
Ntp404
(g10
Ntp405
g8
tp406
g8
tp407
F2.0
saI50
aa(lp408
(dp409
(((g3
g41
tp410
(g6
Ntp411
(g8
Ntp412
(g10
Ntp413
g10
tp414
g10
tp415
F2.0
saI51
aa(lp416
(dp417
(((g3
g41
tp418
(g6
Ntp419
(g8
Ntp420
(g10
Ntp421
g8
tp422
g8
tp423
F3.5
saI52
aa(lp424
(dp425
(((g3
g4
tp426
(g6
Ntp427
(g8
Ntp428
(g10
Ntp429
g8
tp430
g8
tp431
F2.0
saI53
aa(lp432
(dp433
(((g3
g4
tp434
(g6
Ntp435
(g8
Ntp436
(g10
Ntp437
g21
tp438
Ntp439
I1
saI54
aa(lp440
(dp441
(((g3
g4
tp442
(g6
Ntp443
(g8
Ntp444
(g10
Ntp445
g21
tp446
Ntp447
F1.0
saI55
aa(lp448
(dp449
(((g3
g41
tp450
(g6
Ntp451
(g8
Ntp452
(g10
Ntp453
g21
tp454
Ntp455
I1
saI56
aa(lp456
(dp457
(((g3
g41
tp458
(g6
Ntp459
(g8
Ntp460
(g10
Ntp461
g21
tp462
Ntp463
F1.0
saI57
aa(lp464
(dp465
(((g3
g41
tp466
(g6
Ntp467
(g8
Ntp468
(g10
Ntp469
g21
tp470
Ntp471
F1.0
saI58
aa(lp472
(dp473
(((g3
g4
tp474
(g6
Ntp475
(g8
Ntp476
(g10
Ntp477
g21
tp478
Ntp479
F1.0
saI59
aa(lp480
(dp481
(((g3
g4
tp482
(g6
Ntp483
(g8
Ntp484
(g10
Ntp485
g21
tp486
Ntp487
F1.0
saI60
aa(lp488
(dp489
(((g3
g4
tp490
(g6
Ntp491
(g8
Ntp492
(g10
Ntp493
g21
tp494
Ntp495
F1.0
saI61
aa(lp496
(dp497
(((g3
g41
tp498
(g6
Ntp499
(g8
Ntp500
(g10
Ntp501
g21
tp502
Ntp503
F1.0
saI62
aa(lp504
(dp505
(((g3
g41
tp506
(g6
Ntp507
(g8
Ntp508
(g10
Ntp509
g21
tp510
Ntp511
F1.0
saI63
aa(lp512
(dp513
(((g3
g41
tp514
(g6
Ntp515
(g8
Ntp516
(g10
Ntp517
g21
tp518
Ntp519
F1.0
saI64
aa(lp520
(dp521
(((g3
g4
tp522
(g6
Ntp523
(g8
Ntp524
(g10
Ntp525
g21
tp526
Ntp527
F1.0
saI65
aa(lp528
(dp529
(((g3
g4
tp530
(g6
Ntp531
(g8
Ntp532
(g10
Ntp533
g21
tp534
Ntp535
F1.0
saI66
aa(lp536
(dp537
(((g3
g4
tp538
(g6
Ntp539
(g8
Ntp540
(g10
Ntp541
g21
tp542
g10
tp543
I-1
saI67
aa(lp544
(dp545
(((g3
g41
tp546
(g6
Ntp547
(g8
Ntp548
(g10
Ntp549
g21
tp550
g10
tp551
F0.5
saI68
aa(lp552
(dp553
(((g3
g41
tp554
(g6
g10
tp555
(g8
Ntp556
(g10
Ntp557
g10
tp558
g21
tp559
F0.5
saI69
aa(lp560
(dp561
(((g3
g41
tp562
(g6
Ntp563
(g8
Ntp564
(g10
Ntp565
g10
tp566
g21
tp567
F0.5
saI70
aa(lp568
(dp569
(((g3
g4
tp570
(g6
Ntp571
(g8
Ntp572
(g10
Ntp573
g10
tp574
Ntp575
F1.0
saI71
aa(lp576
(dp577
(((g3
g4
tp578
(g6
Ntp579
(g8
Ntp580
(g10
Ntp581
g10
tp582
Ntp583
F1.0
saI72
aa(lp584
(dp585
(((g3
g41
tp586
(g6
Ntp587
(g8
Ntp588
(g10
Ntp589
g10
tp590
g10
tp591
F2.0
saI73
aa(lp592
(dp593
(((g3
g4
tp594
(g6
Ntp595
(g8
Ntp596
(g10
Ntp597
g21
tp598
Ntp599
F1.0
saI74
aa(lp600
(dp601
(((g3
g4
tp602
(g6
Ntp603
(g8
Ntp604
(g10
Ntp605
g21
tp606
Ntp607
F1.0
saI75
aa(lp608
(dp609
(((g3
g4
tp610
(g6
Ntp611
(g8
Ntp612
(g10
Ntp613
g21
tp614
g10
tp615
F-1.0
saI76
aa(lp616
(dp617
(((g3
g41
tp618
(g6
Ntp619
(g8
Ntp620
(g10
Ntp621
g21
tp622
Ntp623
F1.0
saI77
aa(lp624
(dp625
(((g3
g41
tp626
(g6
Ntp627
(g8
Ntp628
(g10
Ntp629
g21
tp630
g21
tp631
I2
saI78
aa(lp632
(dp633
(((g3
g4
tp634
(g6
Ntp635
(g8
Ntp636
(g10
Ntp637
g21
tp638
Ntp639
F1.0
saI79
aa(lp640
(dp641
(((g3
g4
tp642
(g6
Ntp643
(g8
Ntp644
(g10
Ntp645
g21
tp646
Ntp647
F1.0
saI80
aa(lp648
(dp649
(((g3
g41
tp650
(g6
Ntp651
(g8
Ntp652
(g10
Ntp653
g21
tp654
g21
tp655
F2.0
saI81
aa(lp656
(dp657
(((g3
g41
tp658
(g6
Ntp659
(g8
Ntp660
(g10
Ntp661
g21
tp662
g21
tp663
F2.0
saI82
aa(lp664
(dp665
(((g3
g4
tp666
(g6
Ntp667
(g8
Ntp668
(g10
Ntp669
g21
tp670
Ntp671
F1.0
saI83
aa(lp672
(dp673
(((g3
g4
tp674
(g6
Ntp675
(g8
Ntp676
(g10
Ntp677
g21
tp678
Ntp679
F1.0
saI84
aa(lp680
(dp681
(((g3
g4
tp682
(g6
Ntp683
(g8
Ntp684
(g10
Ntp685
g21
tp686
Ntp687
F1.0
saI85
aa(lp688
(dp689
(((g3
g4
tp690
(g6
Ntp691
(g8
Ntp692
(g10
Ntp693
g21
tp694
Ntp695
F1.0
saI86
aa(lp696
(dp697
(((g3
g4
tp698
(g6
Ntp699
(g8
Ntp700
(g10
Ntp701
g21
tp702
Ntp703
F1.0
saI87
aa(lp704
(dp705
(((g3
g41
tp706
(g6
Ntp707
(g8
Ntp708
(g10
Ntp709
g21
tp710
g21
tp711
F2.0
saI88
aa(lp712
(dp713
(((g3
g4
tp714
(g6
Ntp715
(g8
Ntp716
(g10
Ntp717
g21
tp718
Ntp719
F1.0
saI89
aa(lp720
(dp721
(((g3
g4
tp722
(g6
Ntp723
(g8
Ntp724
(g10
Ntp725
g21
tp726
Ntp727
F1.0
saI90
aa(lp728
(dp729
(((g3
g4
tp730
(g6
Ntp731
(g8
Ntp732
(g10
Ntp733
g21
tp734
Ntp735
F1.0
saI91
aa(lp736
(dp737
(((g3
g41
tp738
(g6
Ntp739
(g8
Ntp740
(g10
Ntp741
g21
tp742
g10
tp743
F0.5
saI92
aa(lp744
(dp745
(((g3
g41
tp746
(g6
Ntp747
(g8
Ntp748
(g10
Ntp749
g10
tp750
g10
tp751
F2.0
saI93
aa(lp752
(dp753
(((g3
g41
tp754
(g6
Ntp755
(g8
Ntp756
(g10
Ntp757
g8
tp758
g8
tp759
F3.275
saI94
aa(lp760
(dp761
(((g3
g41
tp762
(g6
Ntp763
(g8
Ntp764
(g10
Ntp765
g10
tp766
Ntp767
I1
saI95
aa(lp768
(dp769
(((g3
g41
tp770
(g6
Ntp771
(g8
Ntp772
(g10
Ntp773
g10
tp774
g10
tp775
F2.0
saI96
aa(lp776
(dp777
(((g3
g41
tp778
(g6
Ntp779
(g8
Ntp780
(g10
Ntp781
g8
tp782
g21
tp783
F0.5
saI97
aa(lp784
(dp785
(((g3
g41
tp786
(g6
Ntp787
(g8
Ntp788
(g10
Ntp789
g8
tp790
g8
tp791
F3.0837499999999998
saI98
aa(lp792
(dp793
(((g3
g4
tp794
(g6
Ntp795
(g8
Ntp796
(g10
Ntp797
g10
tp798
Ntp799
F1.0
saI99
aa(lp800
(dp801
(((g3
g4
tp802
(g6
Ntp803
(g8
Ntp804
(g10
Ntp805
g10
tp806
Ntp807
F1.0
saI100
aa(lp808
(dp809
(((g3
g41
tp810
(g6
g10
tp811
(g8
Ntp812
(g10
Ntp813
g10
tp814
g8
tp815
F0.5
saI101
aa(lp816
(dp817
(((g3
g41
tp818
(g6
Ntp819
(g8
Ntp820
(g10
Ntp821
g21
tp822
g10
tp823
F0.5
saI102
aa(lp824
(dp825
(((g3
g4
tp826
(g6
Ntp827
(g8
Ntp828
(g10
Ntp829
g10
tp830
g10
tp831
F-1.0
saI103
aa(lp832
(dp833
(((g3
g4
tp834
(g6
Ntp835
(g8
Ntp836
(g10
Ntp837
g10
tp838
g10
tp839
F-1.0
saI104
aa(lp840
(dp841
(((g3
g4
tp842
(g6
Ntp843
(g8
Ntp844
(g10
Ntp845
g10
tp846
Ntp847
F1.0
saI105
aa(lp848
(dp849
(((g3
g4
tp850
(g6
Ntp851
(g8
Ntp852
(g10
Ntp853
g10
tp854
g21
tp855
F-1.0
saI106
aa(lp856
(dp857
(((g3
g4
tp858
(g6
Ntp859
(g8
Ntp860
(g10
Ntp861
g10
tp862
Ntp863
F1.0
saI107
aa(lp864
(dp865
(((g3
g41
tp866
(g6
Ntp867
(g8
Ntp868
(g10
Ntp869
g10
tp870
g10
tp871
F2.0
saI108
aa(lp872
(dp873
(((g3
g4
tp874
(g6
Ntp875
(g8
Ntp876
(g10
Ntp877
g8
tp878
g8
tp879
F2.0
saI109
aa(lp880
(dp881
(((g3
g41
tp882
(g6
Ntp883
(g8
Ntp884
(g10
Ntp885
g10
tp886
g10
tp887
F2.0
saI110
aa(lp888
(dp889
(((g3
g4
tp890
(g6
Ntp891
(g8
Ntp892
(g10
Ntp893
g21
tp894
Ntp895
F1.0
saI111
aa(lp896
(dp897
(((g3
g4
tp898
(g6
Ntp899
(g8
Ntp900
(g10
Ntp901
g21
tp902
g21
tp903
I-1
saI112
aa(lp904
(dp905
(((g3
g4
tp906
(g6
Ntp907
(g8
Ntp908
(g10
Ntp909
g21
tp910
Ntp911
F1.0
saI113
aa(lp912
(dp913
(((g3
g41
tp914
(g6
Ntp915
(g8
Ntp916
(g10
Ntp917
g21
tp918
g21
tp919
F2.0
saI114
aa(lp920
(dp921
(((g3
g41
tp922
(g6
Ntp923
(g8
Ntp924
(g10
Ntp925
g8
tp926
g8
tp927
F4.421187499999999
saI115
aa(lp928
(dp929
(((g3
g4
tp930
(g6
Ntp931
(g8
Ntp932
(g10
Ntp933
g8
tp934
g8
tp935
F2.0
saI116
aa(lp936
(dp937
(((g3
g41
tp938
(g6
Ntp939
(g8
Ntp940
(g10
Ntp941
g8
tp942
g8
tp943
F4.058009374999999
saI117
aa(lp944
(dp945
(((g3
g4
tp946
(g6
Ntp947
(g8
Ntp948
(g10
Ntp949
g21
tp950
Ntp951
F1.0
saI118
aa(lp952
(dp953
(((g3
g4
tp954
(g6
Ntp955
(g8
Ntp956
(g10
Ntp957
g21
tp958
Ntp959
F1.0
saI119
aa(lp960
(dp961
(((g3
g41
tp962
(g6
Ntp963
(g8
Ntp964
(g10
Ntp965
g21
tp966
g21
tp967
F3.5
saI120
aa(lp968
(dp969
(((g3
g41
tp970
(g6
Ntp971
(g8
Ntp972
(g10
Ntp973
g21
tp974
g21
tp975
F3.275
saI121
aa(lp976
(dp977
(((g3
g41
tp978
(g6
Ntp979
(g8
Ntp980
(g10
Ntp981
g21
tp982
g21
tp983
F3.0837499999999998
saI122
aa(lp984
(dp985
(((g3
g41
tp986
(g6
Ntp987
(g8
Ntp988
(g10
Ntp989
g10
tp990
g21
tp991
F0.5
saI123
aa(lp992
(dp993
(((g3
g4
tp994
(g6
Ntp995
(g8
Ntp996
(g10
Ntp997
g8
tp998
g8
tp999
F2.0
saI124
aa(lp1000
(dp1001
(((g3
g41
tp1002
(g6
Ntp1003
(g8
Ntp1004
(g10
Ntp1005
g10
tp1006
Ntp1007
F1.0
saI125
aa(lp1008
(dp1009
(((g3
g4
tp1010
(g6
Ntp1011
(g8
Ntp1012
(g10
Ntp1013
g10
tp1014
Ntp1015
F1.0
saI126
aa(lp1016
(dp1017
(((g3
g4
tp1018
(g6
Ntp1019
(g8
Ntp1020
(g10
Ntp1021
g10
tp1022
Ntp1023
F1.0
saI127
aa(lp1024
(dp1025
(((g3
g4
tp1026
(g6
Ntp1027
(g8
Ntp1028
(g10
Ntp1029
g10
tp1030
g21
tp1031
F-1.0
saI128
aa(lp1032
(dp1033
(((g3
g4
tp1034
(g6
Ntp1035
(g8
Ntp1036
(g10
Ntp1037
g10
tp1038
Ntp1039
F1.0
saI129
aa(lp1040
(dp1041
(((g3
g4
tp1042
(g6
Ntp1043
(g8
Ntp1044
(g10
Ntp1045
g10
tp1046
Ntp1047
F1.0
saI130
aa(lp1048
(dp1049
(((g3
g41
tp1050
(g6
Ntp1051
(g8
Ntp1052
(g10
Ntp1053
g10
tp1054
g10
tp1055
F2.0
saI131
aa(lp1056
(dp1057
(((g3
g4
tp1058
(g6
Ntp1059
(g8
Ntp1060
(g10
Ntp1061
g8
tp1062
g8
tp1063
F2.0
saI132
aa(lp1064
(dp1065
(((g3
g41
tp1066
(g6
Ntp1067
(g8
Ntp1068
(g10
Ntp1069
g10
tp1070
g10
tp1071
F2.0
saI133
aa(lp1072
(dp1073
(((g3
g41
tp1074
(g6
Ntp1075
(g8
Ntp1076
(g10
Ntp1077
g8
tp1078
g8
tp1079
F3.7493079687499993
saI134
aa(lp1080
(dp1081
(((g3
g4
tp1082
(g6
Ntp1083
(g8
Ntp1084
(g10
Ntp1085
g10
tp1086
g8
tp1087
F0.5
saI135
aa(lp1088
(dp1089
(((g3
g41
tp1090
(g6
Ntp1091
(g8
Ntp1092
(g10
Ntp1093
g21
tp1094
g21
tp1095
F2.9211875
saI136
aa(lp1096
(dp1097
(((g3
g41
tp1098
(g6
Ntp1099
(g8
Ntp1100
(g10
Ntp1101
g21
tp1102
g21
tp1103
F2.783009375
saI137
aa(lp1104
(dp1105
(((g3
g4
tp1106
(g6
Ntp1107
(g8
Ntp1108
(g10
Ntp1109
g8
tp1110
g8
tp1111
F3.5
saI138
aa(lp1112
(dp1113
(((g3
g4
tp1114
(g6
Ntp1115
(g8
Ntp1116
(g10
Ntp1117
g21
tp1118
g21
tp1119
F-1.0
saI139
aa(lp1120
(dp1121
(((g3
g4
tp1122
(g6
Ntp1123
(g8
Ntp1124
(g10
Ntp1125
g21
tp1126
Ntp1127
F1.0
saI140
aa(lp1128
(dp1129
(((g3
g4
tp1130
(g6
Ntp1131
(g8
Ntp1132
(g10
Ntp1133
g21
tp1134
Ntp1135
F1.0
saI141
aa(lp1136
(dp1137
(((g3
g4
tp1138
(g6
Ntp1139
(g8
Ntp1140
(g10
Ntp1141
g21
tp1142
Ntp1143
F1.0
saI142
aa(lp1144
(dp1145
(((g3
g41
tp1146
(g6
Ntp1147
(g8
Ntp1148
(g10
Ntp1149
g21
tp1150
g21
tp1151
F2.66555796875
saI143
aa(lp1152
(dp1153
(((g3
g4
tp1154
(g6
Ntp1155
(g8
Ntp1156
(g10
Ntp1157
g21
tp1158
g21
tp1159
F-1.0
saI144
aa(lp1160
(dp1161
(((g3
g4
tp1162
(g6
Ntp1163
(g8
Ntp1164
(g10
Ntp1165
g21
tp1166
Ntp1167
F1.0
saI145
aa(lp1168
(dp1169
(((g3
g4
tp1170
(g6
Ntp1171
(g8
Ntp1172
(g10
Ntp1173
g21
tp1174
Ntp1175
F1.0
saI146
aa(lp1176
(dp1177
(((g3
g41
tp1178
(g6
Ntp1179
(g8
Ntp1180
(g10
Ntp1181
g21
tp1182
g21
tp1183
F2.5657242734375
saI147
aa(lp1184
(dp1185
(((g3
g4
tp1186
(g6
Ntp1187
(g8
Ntp1188
(g10
Ntp1189
g21
tp1190
g10
tp1191
F-1.0
saI148
aa(lp1192
(dp1193
(((g3
g41
tp1194
(g6
Ntp1195
(g8
Ntp1196
(g10
Ntp1197
g21
tp1198
g21
tp1199
F2.480865632421875
saI149
aa(lp1200
(dp1201
(((g3
g41
tp1202
(g6
Ntp1203
(g8
Ntp1204
(g10
Ntp1205
g21
tp1206
g21
tp1207
F2.4087357875585935
saI150
aa(lp1208
(dp1209
(((g3
g4
tp1210
(g6
Ntp1211
(g8
Ntp1212
(g10
Ntp1213
g21
tp1214
Ntp1215
F1.0
saI151
aa(lp1216
(dp1217
(((g3
g4
tp1218
(g6
Ntp1219
(g8
Ntp1220
(g10
Ntp1221
g21
tp1222
g8
tp1223
F0.5
saI152
aa(lp1224
(dp1225
(((g3
g4
tp1226
(g6
Ntp1227
(g8
Ntp1228
(g10
Ntp1229
g8
tp1230
g8
tp1231
F3.275
saI153
aa(lp1232
(dp1233
(((g3
g41
tp1234
(g6
Ntp1235
(g8
Ntp1236
(g10
Ntp1237
g8
tp1238
g10
tp1239
F0.5
saI154
aa(lp1240
(dp1241
(((g3
g41
tp1242
(g6
Ntp1243
(g8
Ntp1244
(g10
Ntp1245
g8
tp1246
g8
tp1247
F3.4869117734374995
saI155
aa(lp1248
(dp1249
(((g3
g41
tp1250
(g6
Ntp1251
(g8
Ntp1252
(g10
Ntp1253
g8
tp1254
g8
tp1255
F3.2638750074218748
saI156
aa(lp1256
(dp1257
(((g3
g4
tp1258
(g6
Ntp1259
(g8
Ntp1260
(g10
Ntp1261
g10
tp1262
Ntp1263
F1.0
saI157
aa(lp1264
(dp1265
(((g3
g4
tp1266
(g6
Ntp1267
(g8
Ntp1268
(g10
Ntp1269
g10
tp1270
Ntp1271
F1.0
saI158
aa(lp1272
(dp1273
(((g3
g41
tp1274
(g6
Ntp1275
(g8
Ntp1276
(g10
Ntp1277
g10
tp1278
Ntp1279
F1.0
saI159
aa(lp1280
(dp1281
(((g3
g41
tp1282
(g6
Ntp1283
(g8
Ntp1284
(g10
Ntp1285
g10
tp1286
g10
tp1287
F2.0
saI160
aa(lp1288
(dp1289
(((g3
g41
tp1290
(g6
Ntp1291
(g8
Ntp1292
(g10
Ntp1293
g8
tp1294
g8
tp1295
F3.0742937563085935
saI161
aa(lp1296
(dp1297
(((g3
g41
tp1298
(g6
Ntp1299
(g8
Ntp1300
(g10
g21
tp1301
g10
tp1302
g10
tp1303
I2
saI162
aa(lp1304
(dp1305
(((g3
g4
tp1306
(g6
Ntp1307
(g8
Ntp1308
(g10
Ntp1309
g8
tp1310
g8
tp1311
F3.0837499999999998
saI163
aa(lp1312
(dp1313
(((g3
g41
tp1314
(g6
Ntp1315
(g8
Ntp1316
(g10
Ntp1317
g10
tp1318
g10
tp1319
F2.0
saI164
aa(lp1320
(dp1321
(((g3
g41
tp1322
(g6
Ntp1323
(g8
Ntp1324
(g10
Ntp1325
g10
tp1326
g10
tp1327
F3.5
saI165
aa(lp1328
(dp1329
(((g3
g41
tp1330
(g6
Ntp1331
(g8
Ntp1332
(g10
Ntp1333
g8
tp1334
g21
tp1335
F0.5
saI166
aa(lp1336
(dp1337
(((g3
g41
tp1338
(g6
Ntp1339
(g8
Ntp1340
(g10
Ntp1341
g8
tp1342
g8
tp1343
F2.9131496928623046
saI167
aa(lp1344
(dp1345
(((g3
g4
tp1346
(g6
Ntp1347
(g8
Ntp1348
(g10
Ntp1349
g8
tp1350
Ntp1351
F1.0
saI168
aa(lp1352
(dp1353
(((g3
g41
tp1354
(g6
Ntp1355
(g8
Ntp1356
(g10
Ntp1357
g8
tp1358
g8
tp1359
F2.776177238932959
saI169
aa(lp1360
(dp1361
(((g3
g41
tp1362
(g6
Ntp1363
(g8
Ntp1364
(g10
Ntp1365
g10
tp1366
g21
tp1367
F0.5
saI170
aa(lp1368
(dp1369
(((g3
g41
tp1370
(g6
Ntp1371
(g8
Ntp1372
(g10
Ntp1373
g10
tp1374
Ntp1375
F1.0
saI171
aa(lp1376
(dp1377
(((g3
g41
tp1378
(g6
Ntp1379
(g8
Ntp1380
(g10
Ntp1381
g10
tp1382
Ntp1383
F1.0
saI172
aa(lp1384
(dp1385
(((g3
g41
tp1386
(g6
Ntp1387
(g8
Ntp1388
(g10
Ntp1389
g10
tp1390
g10
tp1391
F3.275
saI173
aa(lp1392
(dp1393
(((g3
g4
tp1394
(g6
Ntp1395
(g8
Ntp1396
(g10
Ntp1397
g21
tp1398
Ntp1399
F1.0
saI174
aa(lp1400
(dp1401
(((g3
g41
tp1402
(g6
Ntp1403
(g8
Ntp1404
(g10
Ntp1405
g21
tp1406
g21
tp1407
F2.3474254194248045
saI175
aa(lp1408
(dp1409
(((g3
g4
tp1410
(g6
Ntp1411
(g8
Ntp1412
(g10
Ntp1413
g21
tp1414
Ntp1415
F1.0
saI176
aa(lp1416
(dp1417
(((g3
g4
tp1418
(g6
Ntp1419
(g8
Ntp1420
(g10
Ntp1421
g21
tp1422
g21
tp1423
F-1.0
saI177
aa(lp1424
(dp1425
(((g3
g4
tp1426
(g6
Ntp1427
(g8
Ntp1428
(g10
Ntp1429
g21
tp1430
Ntp1431
F1.0
saI178
aa(lp1432
(dp1433
(((g3
g4
tp1434
(g6
Ntp1435
(g8
Ntp1436
(g10
Ntp1437
g21
tp1438
Ntp1439
F1.0
saI179
aa(lp1440
(dp1441
(((g3
g4
tp1442
(g6
Ntp1443
(g8
Ntp1444
(g10
Ntp1445
g21
tp1446
Ntp1447
F1.0
saI180
aa(lp1448
(dp1449
(((g3
g41
tp1450
(g6
Ntp1451
(g8
Ntp1452
(g10
Ntp1453
g21
tp1454
g21
tp1455
F2.295311606511084
saI181
aa(lp1456
(dp1457
(((g3
g41
tp1458
(g6
Ntp1459
(g8
Ntp1460
(g10
Ntp1461
g21
tp1462
g21
tp1463
F2.2510148655344215
saI182
aa(lp1464
(dp1465
(((g3
g41
tp1466
(g6
Ntp1467
(g8
Ntp1468
(g10
Ntp1469
g21
tp1470
g10
tp1471
F0.5
saI183
aa(lp1472
(dp1473
(((g3
g4
tp1474
(g6
g21
tp1475
(g8
Ntp1476
(g10
Ntp1477
g10
tp1478
g8
tp1479
F0.5
saI184
aa(lp1480
(dp1481
(((g3
g4
tp1482
(g6
Ntp1483
(g8
Ntp1484
(g10
Ntp1485
g21
tp1486
Ntp1487
F1.0
saI185
aa(lp1488
(dp1489
(((g3
g4
tp1490
(g6
Ntp1491
(g8
Ntp1492
(g10
Ntp1493
g21
tp1494
Ntp1495
F1.0
saI186
aa(lp1496
(dp1497
(((g3
g41
tp1498
(g6
Ntp1499
(g8
g8
tp1500
(g10
Ntp1501
g21
tp1502
g8
tp1503
F0.5
saI187
aa(lp1504
(dp1505
(((g3
g4
tp1506
(g6
Ntp1507
(g8
Ntp1508
(g10
Ntp1509
g8
tp1510
g8
tp1511
F2.9211875
saI188
aa(lp1512
(dp1513
(((g3
g4
tp1514
(g6
Ntp1515
(g8
Ntp1516
(g10
Ntp1517
g10
tp1518
Ntp1519
F1.0
saI189
aa(lp1520
(dp1521
(((g3
g4
tp1522
(g6
Ntp1523
(g8
Ntp1524
(g10
Ntp1525
g10
tp1526
Ntp1527
F1.0
saI190
aa(lp1528
(dp1529
(((g3
g41
tp1530
(g6
Ntp1531
(g8
Ntp1532
(g10
Ntp1533
g10
tp1534
g10
tp1535
F3.0837499999999998
saI191
aa(lp1536
(dp1537
(((g3
g41
tp1538
(g6
Ntp1539
(g8
Ntp1540
(g10
Ntp1541
g21
tp1542
g21
tp1543
F2.213362635704258
saI192
aa(lp1544
(dp1545
(((g3
g41
tp1546
(g6
Ntp1547
(g8
Ntp1548
(g10
Ntp1549
g21
tp1550
g21
tp1551
F3.6813582403486196
saI193
aa(lp1552
(dp1553
(((g3
g41
tp1554
(g6
Ntp1555
(g8
Ntp1556
(g10
Ntp1557
g8
tp1558
g21
tp1559
F0.5
saI194
aa(lp1560
(dp1561
(((g3
g4
tp1562
(g6
Ntp1563
(g8
Ntp1564
(g10
Ntp1565
g21
tp1566
Ntp1567
F1.0
saI195
aa(lp1568
(dp1569
(((g3
g4
tp1570
(g6
Ntp1571
(g8
Ntp1572
(g10
Ntp1573
g21
tp1574
Ntp1575
F1.0
saI196
aa(lp1576
(dp1577
(((g3
g4
tp1578
(g6
Ntp1579
(g8
Ntp1580
(g10
Ntp1581
g21
tp1582
Ntp1583
F1.0
saI197
aa(lp1584
(dp1585
(((g3
g41
tp1586
(g6
Ntp1587
(g8
Ntp1588
(g10
Ntp1589
g21
tp1590
g10
tp1591
F0.5
saI198
aa(lp1592
(dp1593
(((g3
g4
tp1594
(g6
Ntp1595
(g8
Ntp1596
(g10
Ntp1597
g10
tp1598
Ntp1599
F1.0
saI199
aa(lp1600
(dp1601
(((g3
g4
tp1602
(g6
Ntp1603
(g8
Ntp1604
(g10
Ntp1605
g10
tp1606
Ntp1607
F1.0
saI200
aa(lp1608
(dp1609
(((g3
g4
tp1610
(g6
Ntp1611
(g8
Ntp1612
(g10
Ntp1613
g10
tp1614
Ntp1615
F1.0
saI201
aa(lp1616
(dp1617
(((g3
g4
tp1618
(g6
Ntp1619
(g8
Ntp1620
(g10
Ntp1621
g10
tp1622
Ntp1623
F1.0
saI202
aa(lp1624
(dp1625
(((g3
g4
tp1626
(g6
Ntp1627
(g8
Ntp1628
(g10
Ntp1629
g10
tp1630
Ntp1631
F1.0
saI203
aa(lp1632
(dp1633
(((g3
g41
tp1634
(g6
Ntp1635
(g8
Ntp1636
(g10
Ntp1637
g10
tp1638
g10
tp1639
F2.9211875
saI204
aa(lp1640
(dp1641
(((g3
g4
tp1642
(g6
Ntp1643
(g8
Ntp1644
(g10
Ntp1645
g21
tp1646
Ntp1647
F1.0
saI205
aa(lp1648
(dp1649
(((g3
g4
tp1650
(g6
Ntp1651
(g8
Ntp1652
(g10
Ntp1653
g21
tp1654
Ntp1655
F1.0
saI206
aa(lp1656
(dp1657
(((g3
g4
tp1658
(g6
Ntp1659
(g8
Ntp1660
(g10
Ntp1661
g21
tp1662
g10
tp1663
F-1.0
saI207
aa(lp1664
(dp1665
(((g3
g4
tp1666
(g6
Ntp1667
(g8
Ntp1668
(g10
Ntp1669
g21
tp1670
Ntp1671
F1.0
saI208
aa(lp1672
(dp1673
(((g3
g41
tp1674
(g6
Ntp1675
(g8
Ntp1676
(g10
Ntp1677
g21
tp1678
g21
tp1679
F3.4291545042963265
saI209
aa(lp1680
(dp1681
(((g3
g41
tp1682
(g6
Ntp1683
(g8
Ntp1684
(g10
Ntp1685
g21
tp1686
g21
tp1687
F3.2147813286518776
saI210
aa(lp1688
(dp1689
(((g3
g41
tp1690
(g6
Ntp1691
(g8
Ntp1692
(g10
Ntp1693
g10
tp1694
g8
tp1695
F10.5
saI211
aa(lp1696
(dp1697
(((g3
g41
tp1698
(g6
Ntp1699
(g8
Ntp1700
(g10
Ntp1701
g8
tp1702
g8
tp1703
F2.659750653093015
saI212
aa(lp1704
(dp1705
(((g3
g41
tp1706
(g6
Ntp1707
(g8
Ntp1708
(g10
Ntp1709
g10
tp1710
Ntp1711
F1.0
saI213
aa(lp1712
(dp1713
(((g3
g41
tp1714
(g6
Ntp1715
(g8
Ntp1716
(g10
Ntp1717
g10
tp1718
g8
tp1719
F9.0
saI214
aa(lp1720
(dp1721
(((g3
g4
tp1722
(g6
Ntp1723
(g8
Ntp1724
(g10
Ntp1725
g21
tp1726
Ntp1727
F1.0
saI215
aa(lp1728
(dp1729
(((g3
g4
tp1730
(g6
Ntp1731
(g8
Ntp1732
(g10
Ntp1733
g21
tp1734
g8
tp1735
F0.5
saI216
aa(lp1736
(dp1737
(((g3
g41
tp1738
(g6
Ntp1739
(g8
Ntp1740
(g10
Ntp1741
g8
tp1742
g8
tp1743
F2.5607880551290627
saI217
aa(lp1744
(dp1745
(((g3
g4
tp1746
(g6
Ntp1747
(g8
Ntp1748
(g10
Ntp1749
g8
tp1750
g8
tp1751
F2.783009375
saI218
aa(lp1752
(dp1753
(((g3
g4
tp1754
(g6
Ntp1755
(g8
Ntp1756
(g10
Ntp1757
g10
tp1758
Ntp1759
F1.0
saI219
aa(lp1760
(dp1761
(((g3
g41
tp1762
(g6
Ntp1763
(g8
Ntp1764
(g10
Ntp1765
g10
tp1766
g8
tp1767
F7.725
saI220
aa(lp1768
(dp1769
(((g3
g41
tp1770
(g6
Ntp1771
(g8
Ntp1772
(g10
Ntp1773
g21
tp1774
g21
tp1775
F3.032564129354096
saI221
aa(lp1776
(dp1777
(((g3
g4
tp1778
(g6
Ntp1779
(g8
Ntp1780
(g10
Ntp1781
g21
tp1782
g21
tp1783
F-1.0
saI222
aa(lp1784
(dp1785
(((g3
g4
tp1786
(g6
Ntp1787
(g8
Ntp1788
(g10
Ntp1789
g21
tp1790
Ntp1791
F1.0
saI223
aa(lp1792
(dp1793
(((g3
g41
tp1794
(g6
Ntp1795
(g8
Ntp1796
(g10
Ntp1797
g21
tp1798
g21
tp1799
F2.8776795099509815
saI224
aa(lp1800
(dp1801
(((g3
g41
tp1802
(g6
Ntp1803
(g8
Ntp1804
(g10
Ntp1805
g8
tp1806
g8
tp1807
F2.4766698468597035
saI225
aa(lp1808
(dp1809
(((g3
g4
tp1810
(g6
Ntp1811
(g8
Ntp1812
(g10
Ntp1813
g21
tp1814
Ntp1815
F1.0
saI226
aa(lp1816
(dp1817
(((g3
g41
tp1818
(g6
Ntp1819
(g8
Ntp1820
(g10
Ntp1821
g21
tp1822
g21
tp1823
F2.7460275834583343
saI227
aa(lp1824
(dp1825
(((g3
g4
tp1826
(g6
Ntp1827
(g8
Ntp1828
(g10
Ntp1829
g21
tp1830
Ntp1831
F1.0
saI228
aa(lp1832
(dp1833
(((g3
g4
tp1834
(g6
Ntp1835
(g8
Ntp1836
(g10
Ntp1837
g21
tp1838
Ntp1839
F1.0
saI229
aa(lp1840
(dp1841
(((g3
g4
tp1842
(g6
Ntp1843
(g8
Ntp1844
(g10
Ntp1845
g21
tp1846
Ntp1847
F1.0
saI230
aa(lp1848
(dp1849
(((g3
g4
tp1850
(g6
Ntp1851
(g8
Ntp1852
(g10
Ntp1853
g21
tp1854
Ntp1855
F1.0
saI231
aa(lp1856
(dp1857
(((g3
g41
tp1858
(g6
Ntp1859
(g8
Ntp1860
(g10
Ntp1861
g21
tp1862
g21
tp1863
F2.634123445939584
saI232
aa(lp1864
(dp1865
(((g3
g41
tp1866
(g6
Ntp1867
(g8
Ntp1868
(g10
Ntp1869
g21
tp1870
g21
tp1871
F2.5390049290486467
saI233
aa(lp1872
(dp1873
(((g3
g41
tp1874
(g6
Ntp1875
(g8
Ntp1876
(g10
Ntp1877
g21
tp1878
g21
tp1879
F3.9581541896913497
saI234
aa(lp1880
(dp1881
(((g3
g41
tp1882
(g6
Ntp1883
(g8
Ntp1884
(g10
Ntp1885
g8
tp1886
g8
tp1887
F2.405169369830748
saI235
aa(lp1888
(dp1889
(((g3
g41
tp1890
(g6
Ntp1891
(g8
Ntp1892
(g10
Ntp1893
g21
tp1894
Ntp1895
F1.0
saI236
aa(lp1896
(dp1897
(((g3
g41
tp1898
(g6
Ntp1899
(g8
Ntp1900
(g10
Ntp1901
g21
tp1902
g21
tp1903
F3.6644310612376474
saI237
aa(lp1904
(dp1905
(((g3
g4
tp1906
(g6
Ntp1907
(g8
Ntp1908
(g10
Ntp1909
g21
tp1910
Ntp1911
F1.0
saI238
aa(lp1912
(dp1913
(((g3
g41
tp1914
(g6
g21
tp1915
(g8
Ntp1916
(g10
Ntp1917
g21
tp1918
g10
tp1919
F0.5
saI239
aa(lp1920
(dp1921
(((g3
g4
tp1922
(g6
Ntp1923
(g8
Ntp1924
(g10
Ntp1925
g10
tp1926
Ntp1927
F1.0
saI240
aa(lp1928
(dp1929
(((g3
g4
tp1930
(g6
Ntp1931
(g8
Ntp1932
(g10
Ntp1933
g10
tp1934
Ntp1935
F1.0
saI241
aa(lp1936
(dp1937
(((g3
g4
tp1938
(g6
Ntp1939
(g8
Ntp1940
(g10
Ntp1941
g10
tp1942
Ntp1943
F1.0
saI242
aa(lp1944
(dp1945
(((g3
g41
tp1946
(g6
Ntp1947
(g8
Ntp1948
(g10
Ntp1949
g10
tp1950
g8
tp1951
F6.641249999999999
saI243
aa(lp1952
(dp1953
(((g3
g4
tp1954
(g6
Ntp1955
(g8
Ntp1956
(g10
Ntp1957
g21
tp1958
Ntp1959
F1.0
saI244
aa(lp1960
(dp1961
(((g3
g4
tp1962
(g6
Ntp1963
(g8
Ntp1964
(g10
Ntp1965
g21
tp1966
Ntp1967
F1.0
saI245
aa(lp1968
(dp1969
(((g3
g4
tp1970
(g6
Ntp1971
(g8
Ntp1972
(g10
Ntp1973
g21
tp1974
Ntp1975
F1.0
saI246
aa(lp1976
(dp1977
(((g3
g41
tp1978
(g6
Ntp1979
(g8
Ntp1980
(g10
Ntp1981
g21
tp1982
g21
tp1983
F3.4147664020520003
saI247
aa(lp1984
(dp1985
(((g3
g4
tp1986
(g6
Ntp1987
(g8
Ntp1988
(g10
Ntp1989
g21
tp1990
Ntp1991
F1.0
saI248
aa(lp1992
(dp1993
(((g3
g4
tp1994
(g6
Ntp1995
(g8
Ntp1996
(g10
Ntp1997
g21
tp1998
Ntp1999
F1.0
saI249
aa(lp2000
(dp2001
(((g3
g41
tp2002
(g6
g8
tp2003
(g8
Ntp2004
(g10
Ntp2005
g21
tp2006
Ntp2007
I1
saI250
aa(lp2008
(dp2009
(((g3
g41
tp2010
(g6
Ntp2011
(g8
Ntp2012
(g10
Ntp2013
g21
tp2014
g21
tp2015
F3.2025514417442005
saI251
aa(lp2016
(dp2017
(((g3
g41
tp2018
(g6
Ntp2019
(g8
Ntp2020
(g10
Ntp2021
g8
tp2022
g8
tp2023
F2.344393964356136
saI252
aa(lp2024
(dp2025
(((g3
g41
tp2026
(g6
Ntp2027
(g8
Ntp2028
(g10
Ntp2029
g21
tp2030
Ntp2031
F1.0
saI253
aa(lp2032
(dp2033
(((g3
g41
tp2034
(g6
Ntp2035
(g8
Ntp2036
(g10
Ntp2037
g21
tp2038
Ntp2039
F1.0
saI254
aa(lp2040
(dp2041
(((g3
g41
tp2042
(g6
Ntp2043
(g8
Ntp2044
(g10
Ntp2045
g21
tp2046
g21
tp2047
F3.02216872548257
saI255
aa(lp2048
(dp2049
(((g3
g4
tp2050
(g6
Ntp2051
(g8
Ntp2052
(g10
Ntp2053
g21
tp2054
Ntp2055
F1.0
saI256
aa(lp2056
(dp2057
(((g3
g4
tp2058
(g6
Ntp2059
(g8
Ntp2060
(g10
Ntp2061
g21
tp2062
g8
tp2063
F0.5
saI257
aa(lp2064
(dp2065
(((g3
g41
tp2066
(g6
Ntp2067
(g8
Ntp2068
(g10
Ntp2069
g8
tp2070
g8
tp2071
F2.2927348697027155
saI258
aa(lp2072
(dp2073
(((g3
g41
tp2074
(g6
Ntp2075
(g8
Ntp2076
(g10
Ntp2077
g10
tp2078
g8
tp2079
F5.720062499999999
saI259
aa(lp2080
(dp2081
(((g3
g4
tp2082
(g6
Ntp2083
(g8
Ntp2084
(g10
Ntp2085
g8
tp2086
g8
tp2087
F2.66555796875
saI260
aa(lp2088
(dp2089
(((g3
g41
tp2090
(g6
Ntp2091
(g8
Ntp2092
(g10
Ntp2093
g8
tp2094
g8
tp2095
F2.2488246392473084
saI261
aa(lp2096
(dp2097
(((g3
g4
tp2098
(g6
Ntp2099
(g8
Ntp2100
(g10
Ntp2101
g10
tp2102
Ntp2103
F1.0
saI262
aa(lp2104
(dp2105
(((g3
g4
tp2106
(g6
Ntp2107
(g8
Ntp2108
(g10
Ntp2109
g10
tp2110
Ntp2111
F1.0
saI263
aa(lp2112
(dp2113
(((g3
g41
tp2114
(g6
Ntp2115
(g8
Ntp2116
(g10
Ntp2117
g10
tp2118
g8
tp2119
F4.937053124999999
saI264
aa(lp2120
(dp2121
(((g3
g4
tp2122
(g6
Ntp2123
(g8
Ntp2124
(g10
Ntp2125
g21
tp2126
g8
tp2127
F0.5
saI265
aa(lp2128
(dp2129
(((g3
g41
tp2130
(g6
Ntp2131
(g8
Ntp2132
(g10
Ntp2133
g8
tp2134
g8
tp2135
F2.211500943360212
saI266
aa(lp2136
(dp2137
(((g3
g4
tp2138
(g6
Ntp2139
(g8
Ntp2140
(g10
Ntp2141
g8
tp2142
g8
tp2143
F2.5657242734375
saI267
aa(lp2144
(dp2145
(((g3
g4
tp2146
(g6
Ntp2147
(g8
Ntp2148
(g10
Ntp2149
g10
tp2150
Ntp2151
F1.0
saI268
aa(lp2152
(dp2153
(((g3
g4
tp2154
(g6
Ntp2155
(g8
Ntp2156
(g10
Ntp2157
g10
tp2158
g21
tp2159
F-1.0
saI269
aa(lp2160
(dp2161
(((g3
g41
tp2162
(g6
Ntp2163
(g8
Ntp2164
(g10
Ntp2165
g10
tp2166
g8
tp2167
F4.271495156249999
saI270
aa(lp2168
(dp2169
(((g3
g41
tp2170
(g6
Ntp2171
(g8
Ntp2172
(g10
Ntp2173
g21
tp2174
g21
tp2175
F2.8688434166601846
saI271
aa(lp2176
(dp2177
(((g3
g4
tp2178
(g6
Ntp2179
(g8
Ntp2180
(g10
Ntp2181
g21
tp2182
g21
tp2183
F-1.0
saI272
aa(lp2184
(dp2185
(((g3
g4
tp2186
(g6
Ntp2187
(g8
Ntp2188
(g10
Ntp2189
g21
tp2190
Ntp2191
F1.0
saI273
aa(lp2192
(dp2193
(((g3
g4
tp2194
(g6
Ntp2195
(g8
Ntp2196
(g10
Ntp2197
g21
tp2198
Ntp2199
F1.0
saI274
aa(lp2200
(dp2201
(((g3
g4
tp2202
(g6
Ntp2203
(g8
Ntp2204
(g10
Ntp2205
g21
tp2206
g8
tp2207
F0.5
saI275
aa(lp2208
(dp2209
(((g3
g41
tp2210
(g6
Ntp2211
(g8
Ntp2212
(g10
Ntp2213
g8
tp2214
g8
tp2215
F2.1797758018561804
saI276
aa(lp2216
(dp2217
(((g3
g41
tp2218
(g6
Ntp2219
(g8
Ntp2220
(g10
Ntp2221
g8
tp2222
g8
tp2223
F2.1528094315777535
saI277
aa(lp2224
(dp2225
(((g3
g4
tp2226
(g6
Ntp2227
(g8
Ntp2228
(g10
Ntp2229
g10
tp2230
g21
tp2231
F-1.0
saI278
aa(lp2232
(dp2233
(((g3
g4
tp2234
(g6
Ntp2235
(g8
Ntp2236
(g10
Ntp2237
g10
tp2238
Ntp2239
F1.0
saI279
aa(lp2240
(dp2241
(((g3
g4
tp2242
(g6
Ntp2243
(g8
Ntp2244
(g10
Ntp2245
g10
tp2246
Ntp2247
F1.0
saI280
aa(lp2248
(dp2249
(((g3
g41
tp2250
(g6
Ntp2251
(g8
Ntp2252
(g10
Ntp2253
g10
tp2254
g8
tp2255
F3.7057708828125
saI281
aa(lp2256
(dp2257
(((g3
g4
tp2258
(g6
Ntp2259
(g8
Ntp2260
(g10
Ntp2261
g21
tp2262
Ntp2263
F1.0
saI282
aa(lp2264
(dp2265
(((g3
g4
tp2266
(g6
Ntp2267
(g8
Ntp2268
(g10
Ntp2269
g21
tp2270
Ntp2271
F1.0
saI283
aa(lp2272
(dp2273
(((g3
g4
tp2274
(g6
Ntp2275
(g8
Ntp2276
(g10
Ntp2277
g21
tp2278
Ntp2279
F1.0
saI284
aa(lp2280
(dp2281
(((g3
g4
tp2282
(g6
Ntp2283
(g8
Ntp2284
(g10
Ntp2285
g21
tp2286
Ntp2287
F1.0
saI285
aa(lp2288
(dp2289
(((g3
g41
tp2290
(g6
Ntp2291
(g8
Ntp2292
(g10
Ntp2293
g21
tp2294
g21
tp2295
F2.738516904161157
saI286
aa(lp2296
(dp2297
(((g3
g4
tp2298
(g6
Ntp2299
(g8
Ntp2300
(g10
g8
tp2301
g21
tp2302
g10
tp2303
I-1
saI287
aa(lp2304
(dp2305
(((g3
g4
tp2306
(g6
Ntp2307
(g8
Ntp2308
(g10
Ntp2309
g21
tp2310
Ntp2311
F1.0
saI288
aa(lp2312
(dp2313
(((g3
g4
tp2314
(g6
Ntp2315
(g8
Ntp2316
(g10
Ntp2317
g21
tp2318
Ntp2319
F1.0
saI289
aa(lp2320
(dp2321
(((g3
g4
tp2322
(g6
Ntp2323
(g8
Ntp2324
(g10
Ntp2325
g21
tp2326
Ntp2327
F1.0
saI290
aa(lp2328
(dp2329
(((g3
g41
tp2330
(g6
Ntp2331
(g8
Ntp2332
(g10
Ntp2333
g21
tp2334
g21
tp2335
F2.627739368536983
saI291
aa(lp2336
(dp2337
(((g3
g4
tp2338
(g6
g8
tp2339
(g8
Ntp2340
(g10
Ntp2341
g8
tp2342
Ntp2343
I1
saI292
aa(lp2344
(dp2345
(((g3
g4
tp2346
(g6
Ntp2347
(g8
Ntp2348
(g10
Ntp2349
g8
tp2350
g8
tp2351
F2.480865632421875
saI293
aa(lp2352
(dp2353
(((g3
g41
tp2354
(g6
Ntp2355
(g8
Ntp2356
(g10
Ntp2357
g10
tp2358
g8
tp2359
F3.224905250390625
saI294
aa(lp2360
(dp2361
(((g3
g4
tp2362
(g6
Ntp2363
(g8
Ntp2364
(g10
Ntp2365
g21
tp2366
Ntp2367
F1.0
saI295
aa(lp2368
(dp2369
(((g3
g41
tp2370
(g6
Ntp2371
(g8
Ntp2372
(g10
Ntp2373
g21
tp2374
g21
tp2375
F2.5335784632564358
saI296
aa(lp2376
(dp2377
(((g3
g41
tp2378
(g6
Ntp2379
(g8
Ntp2380
(g10
Ntp2381
g21
tp2382
g21
tp2383
F2.4535416937679706
saI297
aa(lp2384
(dp2385
(((g3
g4
tp2386
(g6
Ntp2387
(g8
Ntp2388
(g10
Ntp2389
g21
tp2390
Ntp2391
F1.0
saI298
aa(lp2392
(dp2393
(((g3
g4
tp2394
(g6
Ntp2395
(g8
Ntp2396
(g10
Ntp2397
g21
tp2398
Ntp2399
F1.0
saI299
aa(lp2400
(dp2401
(((g3
g4
tp2402
(g6
Ntp2403
(g8
Ntp2404
(g10
Ntp2405
g21
tp2406
Ntp2407
F1.0
saI300
aa(lp2408
(dp2409
(((g3
g4
tp2410
(g6
Ntp2411
(g8
Ntp2412
(g10
Ntp2413
g21
tp2414
Ntp2415
F1.0
saI301
aa(lp2416
(dp2417
(((g3
g41
tp2418
(g6
Ntp2419
(g8
Ntp2420
(g10
Ntp2421
g21
tp2422
g21
tp2423
F2.385510439702775
saI302
aa(lp2424
(dp2425
(((g3
g4
tp2426
(g6
Ntp2427
(g8
Ntp2428
(g10
Ntp2429
g21
tp2430
Ntp2431
F1.0
saI303
aa(lp2432
(dp2433
(((g3
g41
tp2434
(g6
Ntp2435
(g8
Ntp2436
(g10
Ntp2437
g21
tp2438
g21
tp2439
F2.327683873747359
saI304
aa(lp2440
(dp2441
(((g3
g41
tp2442
(g6
Ntp2443
(g8
Ntp2444
(g10
g8
tp2445
g21
tp2446
g10
tp2447
F0.5
saI305
aa(lp2448
(dp2449
(((g3
g41
tp2450
(g6
Ntp2451
(g8
Ntp2452
(g10
Ntp2453
g10
tp2454
g8
tp2455
F2.8161694628320313
saI306
aa(lp2456
(dp2457
(((g3
g41
tp2458
(g6
Ntp2459
(g8
Ntp2460
(g10
Ntp2461
g10
tp2462
g10
tp2463
F4.283009375
saI307
aa(lp2464
(dp2465
(((g3
g4
tp2466
(g6
Ntp2467
(g8
Ntp2468
(g10
Ntp2469
g21
tp2470
Ntp2471
F1.0
saI308
aa(lp2472
(dp2473
(((g3
g4
tp2474
(g6
Ntp2475
(g8
Ntp2476
(g10
Ntp2477
g21
tp2478
Ntp2479
F1.0
saI309
aa(lp2480
(dp2481
(((g3
g4
tp2482
(g6
Ntp2483
(g8
Ntp2484
(g10
Ntp2485
g21
tp2486
Ntp2487
F1.0
saI310
aa(lp2488
(dp2489
(((g3
g4
tp2490
(g6
Ntp2491
(g8
Ntp2492
(g10
Ntp2493
g21
tp2494
Ntp2495
F1.0
saI311
aa(lp2496
(dp2497
(((g3
g4
tp2498
(g6
Ntp2499
(g8
Ntp2500
(g10
Ntp2501
g21
tp2502
Ntp2503
F1.0
saI312
aa(lp2504
(dp2505
(((g3
g41
tp2506
(g6
Ntp2507
(g8
Ntp2508
(g10
Ntp2509
g21
tp2510
Ntp2511
F1.0
saI313
aa(lp2512
(dp2513
(((g3
g41
tp2514
(g6
Ntp2515
(g8
Ntp2516
(g10
Ntp2517
g21
tp2518
g8
tp2519
F0.5
saI314
aa(lp2520
(dp2521
(((g3
g4
tp2522
(g6
Ntp2523
(g8
Ntp2524
(g10
Ntp2525
g8
tp2526
g8
tp2527
F2.4087357875585935
saI315
aa(lp2528
(dp2529
(((g3
g4
tp2530
(g6
Ntp2531
(g8
Ntp2532
(g10
Ntp2533
g10
tp2534
g21
tp2535
F-1.0
saI316
aa(lp2536
(dp2537
(((g3
g4
tp2538
(g6
Ntp2539
(g8
Ntp2540
(g10
Ntp2541
g10
tp2542
Ntp2543
F1.0
saI317
aa(lp2544
(dp2545
(((g3
g4
tp2546
(g6
Ntp2547
(g8
Ntp2548
(g10
Ntp2549
g10
tp2550
Ntp2551
F1.0
saI318
aa(lp2552
(dp2553
(((g3
g4
tp2554
(g6
Ntp2555
(g8
Ntp2556
(g10
Ntp2557
g10
tp2558
Ntp2559
F1.0
saI319
aa(lp2560
(dp2561
(((g3
g41
tp2562
(g6
Ntp2563
(g8
Ntp2564
(g10
Ntp2565
g10
tp2566
g10
tp2567
F3.94055796875
saI320
aa(lp2568
(dp2569
(((g3
g4
tp2570
(g6
Ntp2571
(g8
Ntp2572
(g10
Ntp2573
g8
tp2574
g8
tp2575
F2.3474254194248045
saI321
aa(lp2576
(dp2577
(((g3
g4
tp2578
(g6
Ntp2579
(g8
Ntp2580
(g10
Ntp2581
g10
tp2582
Ntp2583
F1.0
saI322
aa(lp2584
(dp2585
(((g3
g4
tp2586
(g6
Ntp2587
(g8
g10
tp2588
(g10
Ntp2589
g10
tp2590
g21
tp2591
I-1
saI323
aa(lp2592
(dp2593
(((g3
g41
tp2594
(g6
Ntp2595
(g8
g10
tp2596
(g10
Ntp2597
g10
tp2598
Ntp2599
I1
saI324
aa(lp2600
(dp2601
(((g3
g41
tp2602
(g6
Ntp2603
(g8
g10
tp2604
(g10
Ntp2605
g10
tp2606
Ntp2607
F1.0
saI325
aa(lp2608
(dp2609
(((g3
g41
tp2610
(g6
Ntp2611
(g8
g10
tp2612
(g10
Ntp2613
g10
tp2614
g8
tp2615
F0.5
saI326
aa(lp2616
(dp2617
(((g3
g4
tp2618
(g6
Ntp2619
(g8
Ntp2620
(g10
Ntp2621
g21
tp2622
Ntp2623
F1.0
saI327
aa(lp2624
(dp2625
(((g3
g41
tp2626
(g6
Ntp2627
(g8
Ntp2628
(g10
Ntp2629
g21
tp2630
g21
tp2631
F2.2785312926852552
saI328
aa(lp2632
(dp2633
(((g3
g4
tp2634
(g6
Ntp2635
(g8
Ntp2636
(g10
Ntp2637
g8
tp2638
Ntp2639
F1.0
saI329
aa(lp2640
(dp2641
(((g3
g4
tp2642
(g6
Ntp2643
(g8
Ntp2644
(g10
Ntp2645
g8
tp2646
g8
tp2647
F3.795311606511084
saI330
aa(lp2648
(dp2649
(((g3
g4
tp2650
(g6
Ntp2651
(g8
Ntp2652
(g10
Ntp2653
g8
tp2654
g8
tp2655
F3.5260148655344214
saI331
aa(lp2656
(dp2657
(((g3
g41
tp2658
(g6
Ntp2659
(g8
Ntp2660
(g10
Ntp2661
g21
tp2662
g21
tp2663
F2.236751598782467
saI332
aa(lp2664
(dp2665
(((g3
g4
tp2666
(g6
Ntp2667
(g8
Ntp2668
(g10
Ntp2669
g21
tp2670
g10
tp2671
F-1.0
saI333
aa(lp2672
(dp2673
(((g3
g41
tp2674
(g6
Ntp2675
(g8
Ntp2676
(g10
Ntp2677
g21
tp2678
g21
tp2679
F2.201238858965097
saI334
aa(lp2680
(dp2681
(((g3
g41
tp2682
(g6
Ntp2683
(g8
Ntp2684
(g10
Ntp2685
g21
tp2686
g21
tp2687
F2.171053030120332
saI335
aa(lp2688
(dp2689
(((g3
g41
tp2690
(g6
Ntp2691
(g8
Ntp2692
(g10
Ntp2693
g21
tp2694
g21
tp2695
F2.1453950756022824
saI336
aa(lp2696
(dp2697
(((g3
g4
tp2698
(g6
Ntp2699
(g8
Ntp2700
(g10
Ntp2701
g10
tp2702
Ntp2703
F1.0
saI337
aa(lp2704
(dp2705
(((g3
g4
tp2706
(g6
Ntp2707
(g8
Ntp2708
(g10
Ntp2709
g10
tp2710
Ntp2711
F1.0
saI338
aa(lp2712
(dp2713
(((g3
g41
tp2714
(g6
Ntp2715
(g8
Ntp2716
(g10
Ntp2717
g10
tp2718
g10
tp2719
F3.6494742734375
saI339
aa(lp2720
(dp2721
(((g3
g4
tp2722
(g6
Ntp2723
(g8
Ntp2724
(g10
Ntp2725
g21
tp2726
Ntp2727
F1.0
saI340
aa(lp2728
(dp2729
(((g3
g4
tp2730
(g6
Ntp2731
(g8
Ntp2732
(g10
Ntp2733
g21
tp2734
Ntp2735
F1.0
saI341
aa(lp2736
(dp2737
(((g3
g4
tp2738
(g6
Ntp2739
(g8
Ntp2740
(g10
Ntp2741
g21
tp2742
Ntp2743
F1.0
saI342
aa(lp2744
(dp2745
(((g3
g41
tp2746
(g6
Ntp2747
(g8
Ntp2748
(g10
Ntp2749
g21
tp2750
g21
tp2751
F3.62358581426194
saI343
aa(lp2752
(dp2753
(((g3
g41
tp2754
(g6
Ntp2755
(g8
Ntp2756
(g10
Ntp2757
g21
tp2758
g21
tp2759
F3.380047942122649
saI344
aa(lp2760
(dp2761
(((g3
g4
tp2762
(g6
Ntp2763
(g8
Ntp2764
(g10
Ntp2765
g21
tp2766
g10
tp2767
F-1.0
saI345
aa(lp2768
(dp2769
(((g3
g4
tp2770
(g6
Ntp2771
(g8
Ntp2772
(g10
Ntp2773
g21
tp2774
Ntp2775
F1.0
saI346
aa(lp2776
(dp2777
(((g3
g41
tp2778
(g6
Ntp2779
(g8
Ntp2780
(g10
Ntp2781
g21
tp2782
g21
tp2783
F3.1730407508042515
saI347
aa(lp2784
(dp2785
(((g3
g41
tp2786
(g6
Ntp2787
(g8
Ntp2788
(g10
Ntp2789
g21
tp2790
g21
tp2791
F2.9970846381836136
saI348
aa(lp2792
(dp2793
(((g3
g41
tp2794
(g6
Ntp2795
(g8
Ntp2796
(g10
Ntp2797
g21
tp2798
g21
tp2799
F2.8475219424560714
saI349
aa(lp2800
(dp2801
(((g3
g4
tp2802
(g6
Ntp2803
(g8
Ntp2804
(g10
Ntp2805
g21
tp2806
g8
tp2807
F0.5
saI350
aa(lp2808
(dp2809
(((g3
g4
tp2810
(g6
Ntp2811
(g8
Ntp2812
(g10
Ntp2813
g8
tp2814
g8
tp2815
F3.2971126357042584
saI351
aa(lp2816
(dp2817
(((g3
g4
tp2818
(g6
Ntp2819
(g8
Ntp2820
(g10
Ntp2821
g8
tp2822
g8
tp2823
F3.10254574034862
saI352
aa(lp2824
(dp2825
(((g3
g41
tp2826
(g6
Ntp2827
(g8
Ntp2828
(g10
Ntp2829
g10
tp2830
g8
tp2831
F2.4687440434072268
saI353
aa(lp2832
(dp2833
(((g3
g41
tp2834
(g6
Ntp2835
(g8
Ntp2836
(g10
Ntp2837
g21
tp2838
g21
tp2839
F2.7203936510876607
saI354
aa(lp2840
(dp2841
(((g3
g41
tp2842
(g6
Ntp2843
(g8
Ntp2844
(g10
Ntp2845
g8
tp2846
g8
tp2847
F3.6298880168410905
saI355
aa(lp2848
(dp2849
(((g3
g4
tp2850
(g6
Ntp2851
(g8
Ntp2852
(g10
Ntp2853
g8
tp2854
g21
tp2855
F-1.0
saI356
aa(lp2856
(dp2857
(((g3
g4
tp2858
(g6
Ntp2859
(g8
Ntp2860
(g10
Ntp2861
g8
tp2862
g8
tp2863
F2.937163879296327
saI357
aa(lp2864
(dp2865
(((g3
g41
tp2866
(g6
Ntp2867
(g8
Ntp2868
(g10
Ntp2869
g8
tp2870
g8
tp2871
F3.385404814314927
saI358
aa(lp2872
(dp2873
(((g3
g41
tp2874
(g6
Ntp2875
(g8
Ntp2876
(g10
Ntp2877
g10
tp2878
g10
tp2879
F3.402053132421875
saI359
aa(lp2880
(dp2881
(((g3
g41
tp2882
(g6
Ntp2883
(g8
Ntp2884
(g10
Ntp2885
g21
tp2886
g21
tp2887
F2.612334603424512
saI360
aa(lp2888
(dp2889
(((g3
g4
tp2890
(g6
Ntp2891
(g8
g8
tp2892
(g10
Ntp2893
g21
tp2894
g10
tp2895
I-1
saI361
aa(lp2896
(dp2897
(((g3
g41
tp2898
(g6
Ntp2899
(g8
g8
tp2900
(g10
Ntp2901
g21
tp2902
g8
tp2903
F0.5
saI362
aa(lp2904
(dp2905
(((g3
g4
tp2906
(g6
Ntp2907
(g8
Ntp2908
(g10
Ntp2909
g8
tp2910
g8
tp2911
F2.796589297401878
saI363
aa(lp2912
(dp2913
(((g3
g41
tp2914
(g6
Ntp2915
(g8
Ntp2916
(g10
Ntp2917
g8
tp2918
Ntp2919
F1.0
saI364
aa(lp2920
(dp2921
(((g3
g4
tp2922
(g6
Ntp2923
(g8
Ntp2924
(g10
Ntp2925
g8
tp2926
g10
tp2927
F-1.0
saI365
aa(lp2928
(dp2929
(((g3
g4
tp2930
(g6
Ntp2931
(g8
Ntp2932
(g10
Ntp2933
g8
tp2934
g8
tp2935
F2.677100902791596
saI366
aa(lp2936
(dp2937
(((g3
g4
tp2938
(g6
Ntp2939
(g8
Ntp2940
(g10
Ntp2941
g10
tp2942
Ntp2943
F1.0
saI367
aa(lp2944
(dp2945
(((g3
g4
tp2946
(g6
Ntp2947
(g8
Ntp2948
(g10
Ntp2949
g10
tp2950
Ntp2951
F1.0
saI368
aa(lp2952
(dp2953
(((g3
g4
tp2954
(g6
Ntp2955
(g8
Ntp2956
(g10
Ntp2957
g10
tp2958
Ntp2959
F1.0
saI369
aa(lp2960
(dp2961
(((g3
g4
tp2962
(g6
Ntp2963
(g8
Ntp2964
(g10
Ntp2965
g10
tp2966
g8
tp2967
F0.5
saI370
aa(lp2968
(dp2969
(((g3
g4
tp2970
(g6
Ntp2971
(g8
Ntp2972
(g10
Ntp2973
g21
tp2974
Ntp2975
F1.0
saI371
aa(lp2976
(dp2977
(((g3
g4
tp2978
(g6
Ntp2979
(g8
Ntp2980
(g10
Ntp2981
g21
tp2982
Ntp2983
F1.0
saI372
aa(lp2984
(dp2985
(((g3
g4
tp2986
(g6
Ntp2987
(g8
Ntp2988
(g10
Ntp2989
g21
tp2990
Ntp2991
F1.0
saI373
aa(lp2992
(dp2993
(((g3
g41
tp2994
(g6
Ntp2995
(g8
Ntp2996
(g10
Ntp2997
g21
tp2998
g21
tp2999
F2.520484412910835
saI374
aa(lp3000
(dp3001
(((g3
g4
tp3002
(g6
Ntp3003
(g8
Ntp3004
(g10
Ntp3005
g21
tp3006
Ntp3007
F1.0
saI375
aa(lp3008
(dp3009
(((g3
g41
tp3010
(g6
Ntp3011
(g8
Ntp3012
(g10
Ntp3013
g21
tp3014
g21
tp3015
F2.44241175097421
saI376
aa(lp3016
(dp3017
(((g3
g41
tp3018
(g6
Ntp3019
(g8
Ntp3020
(g10
Ntp3021
g8
tp3022
g8
tp3023
F3.1775940921676877
saI377
aa(lp3024
(dp3025
(((g3
g41
tp3026
(g6
Ntp3027
(g8
Ntp3028
(g10
Ntp3029
g21
tp3030
g21
tp3031
F3.876049988328078
saI378
aa(lp3032
(dp3033
(((g3
g41
tp3034
(g6
Ntp3035
(g8
g10
tp3036
(g10
Ntp3037
g8
tp3038
Ntp3039
I1
saI379
aa(lp3040
(dp3041
(((g3
g41
tp3042
(g6
Ntp3043
(g8
g10
tp3044
(g10
Ntp3045
g8
tp3046
Ntp3047
F1.0
saI380
aa(lp3048
(dp3049
(((g3
g41
tp3050
(g6
Ntp3051
(g8
g10
tp3052
(g10
Ntp3053
g8
tp3054
Ntp3055
F1.0
saI381
aa(lp3056
(dp3057
(((g3
g41
tp3058
(g6
Ntp3059
(g8
g10
tp3060
(g10
Ntp3061
g8
tp3062
Ntp3063
F1.0
saI382
aa(lp3064
(dp3065
(((g3
g41
tp3066
(g6
Ntp3067
(g8
g10
tp3068
(g10
Ntp3069
g8
tp3070
Ntp3071
F1.0
saI383
aa(lp3072
(dp3073
(((g3
g4
tp3074
(g6
Ntp3075
(g8
Ntp3076
(g10
Ntp3077
g8
tp3078
g8
tp3079
F2.5755357673728567
saI384
aa(lp3080
(dp3081
(((g3
g4
tp3082
(g6
Ntp3083
(g8
Ntp3084
(g10
Ntp3085
g8
tp3086
g8
tp3087
F2.4892054022669283
saI385
aa(lp3088
(dp3089
(((g3
g41
tp3090
(g6
Ntp3091
(g8
Ntp3092
(g10
Ntp3093
g10
tp3094
g10
tp3095
F3.1917451625585938
saI386
aa(lp3096
(dp3097
(((g3
g41
tp3098
(g6
Ntp3099
(g8
Ntp3100
(g10
Ntp3101
g10
tp3102
g10
tp3103
F4.5129833881748045
saI387
aa(lp3104
(dp3105
(((g3
g41
tp3106
(g6
Ntp3107
(g8
Ntp3108
(g10
Ntp3109
g10
tp3110
g10
tp3111
F4.136035879948584
saI388
aa(lp3112
(dp3113
(((g3
g4
tp3114
(g6
Ntp3115
(g8
Ntp3116
(g10
Ntp3117
g8
tp3118
g8
tp3119
F2.415824591926889
saI389
aa(lp3120
(dp3121
(((g3
g41
tp3122
(g6
Ntp3123
(g8
Ntp3124
(g10
Ntp3125
g10
tp3126
g10
tp3127
F3.8156304979562963
saI390
aa(lp3128
(dp3129
(((g3
g4
tp3130
(g6
Ntp3131
(g8
Ntp3132
(g10
Ntp3133
g8
tp3134
g8
tp3135
F2.3534509031378557
saI391
aa(lp3136
(dp3137
(((g3
g4
tp3138
(g6
Ntp3139
(g8
Ntp3140
(g10
Ntp3141
g10
tp3142
Ntp3143
F1.0
saI392
aa(lp3144
(dp3145
(((g3
g4
tp3146
(g6
Ntp3147
(g8
Ntp3148
(g10
Ntp3149
g10
tp3150
Ntp3151
F1.0
saI393
aa(lp3152
(dp3153
(((g3
g41
tp3154
(g6
Ntp3155
(g8
Ntp3156
(g10
Ntp3157
g10
tp3158
g8
tp3159
F2.173432436896143
saI394
aa(lp3160
(dp3161
(((g3
g41
tp3162
(g6
Ntp3163
(g8
Ntp3164
(g10
Ntp3165
g21
tp3166
g21
tp3167
F3.5946424900788663
saI395
aa(lp3168
(dp3169
(((g3
g4
tp3170
(g6
Ntp3171
(g8
Ntp3172
(g10
Ntp3173
g21
tp3174
g21
tp3175
F-1.0
saI396
aa(lp3176
(dp3177
(((g3
g41
tp3178
(g6
Ntp3179
(g8
Ntp3180
(g10
Ntp3181
g21
tp3182
g21
tp3183
F3.355446116567036
saI397
aa(lp3184
(dp3185
(((g3
g41
tp3186
(g6
Ntp3187
(g8
Ntp3188
(g10
Ntp3189
g21
tp3190
g21
tp3191
F3.1521291990819806
saI398
aa(lp3192
(dp3193
(((g3
g41
tp3194
(g6
Ntp3195
(g8
Ntp3196
(g10
Ntp3197
g21
tp3198
g21
tp3199
F2.9793098192196834
saI399
aa(lp3200
(dp3201
(((g3
g4
tp3202
(g6
Ntp3203
(g8
Ntp3204
(g10
Ntp3205
g10
tp3206
Ntp3207
F1.0
saI400
aa(lp3208
(dp3209
(((g3
g4
tp3210
(g6
Ntp3211
(g8
Ntp3212
(g10
Ntp3213
g10
tp3214
Ntp3215
F1.0
saI401
aa(lp3216
(dp3217
(((g3
g4
tp3218
(g6
Ntp3219
(g8
Ntp3220
(g10
Ntp3221
g10
tp3222
Ntp3223
F1.0
saI402
aa(lp3224
(dp3225
(((g3
g41
tp3226
(g6
Ntp3227
(g8
Ntp3228
(g10
Ntp3229
g10
tp3230
Ntp3231
F1.0
saI403
aa(lp3232
(dp3233
(((g3
g41
tp3234
(g6
Ntp3235
(g8
Ntp3236
(g10
Ntp3237
g10
tp3238
g10
tp3239
F3.543285923262852
saI404
aa(lp3240
(dp3241
(((g3
g41
tp3242
(g6
Ntp3243
(g8
Ntp3244
(g10
Ntp3245
g21
tp3246
g21
tp3247
F2.8324133463367307
saI405
aa(lp3248
(dp3249
(((g3
g4
tp3250
(g6
Ntp3251
(g8
g8
tp3252
(g10
Ntp3253
g21
tp3254
g10
tp3255
F-1.0
saI406
aa(lp3256
(dp3257
(((g3
g4
tp3258
(g6
Ntp3259
(g8
Ntp3260
(g10
Ntp3261
g21
tp3262
Ntp3263
F1.0
saI407
aa(lp3264
(dp3265
(((g3
g41
tp3266
(g6
Ntp3267
(g8
Ntp3268
(g10
Ntp3269
g21
tp3270
g21
tp3271
F4.207551344386221
saI408
aa(lp3272
(dp3273
(((g3
g41
tp3274
(g6
g8
tp3275
(g8
Ntp3276
(g10
Ntp3277
g21
tp3278
Ntp3279
F1.0
saI409
aa(lp3280
(dp3281
(((g3
g41
tp3282
(g6
Ntp3283
(g8
Ntp3284
(g10
Ntp3285
g21
tp3286
g21
tp3287
F3.876418642728288
saI410
aa(lp3288
(dp3289
(((g3
g41
tp3290
(g6
Ntp3291
(g8
Ntp3292
(g10
Ntp3293
g21
tp3294
g21
tp3295
F3.5949558463190447
saI411
aa(lp3296
(dp3297
(((g3
g41
tp3298
(g6
Ntp3299
(g8
Ntp3300
(g10
Ntp3301
g21
tp3302
g21
tp3303
F3.355712469371188
saI412
aa(lp3304
(dp3305
(((g3
g4
tp3306
(g6
Ntp3307
(g8
Ntp3308
(g10
Ntp3309
g21
tp3310
Ntp3311
F1.0
saI413
aa(lp3312
(dp3313
(((g3
g41
tp3314
(g6
Ntp3315
(g8
Ntp3316
(g10
Ntp3317
g21
tp3318
g21
tp3319
F3.15235559896551
saI414
aa(lp3320
(dp3321
(((g3
g4
tp3322
(g6
Ntp3323
(g8
Ntp3324
(g10
Ntp3325
g21
tp3326
Ntp3327
F1.0
saI415
aa(lp3328
(dp3329
(((g3
g4
tp3330
(g6
Ntp3331
(g8
Ntp3332
(g10
Ntp3333
g21
tp3334
Ntp3335
F1.0
saI416
aa(lp3336
(dp3337
(((g3
g4
tp3338
(g6
Ntp3339
(g8
Ntp3340
(g10
Ntp3341
g21
tp3342
Ntp3343
F1.0
saI417
aa(lp3344
(dp3345
(((g3
g41
tp3346
(g6
Ntp3347
(g8
Ntp3348
(g10
Ntp3349
g21
tp3350
g21
tp3351
F2.9795022591206837
saI418
aa(lp3352
(dp3353
(((g3
g4
tp3354
(g6
Ntp3355
(g8
Ntp3356
(g10
Ntp3357
g8
tp3358
g8
tp3359
F2.3004332676671773
saI419
aa(lp3360
(dp3361
(((g3
g4
tp3362
(g6
Ntp3363
(g8
Ntp3364
(g10
Ntp3365
g21
tp3366
Ntp3367
F1.0
saI420
aa(lp3368
(dp3369
(((g3
g41
tp3370
(g6
Ntp3371
(g8
Ntp3372
(g10
Ntp3373
g21
tp3374
g21
tp3375
F2.8325769202525812
saI421
aa(lp3376
(dp3377
(((g3
g41
tp3378
(g6
Ntp3379
(g8
Ntp3380
(g10
Ntp3381
g21
tp3382
g21
tp3383
F4.207690382214694
saI422
aa(lp3384
(dp3385
(((g3
g41
tp3386
(g6
Ntp3387
(g8
Ntp3388
(g10
Ntp3389
g21
tp3390
g21
tp3391
F3.87653682488249
saI423
aa(lp3392
(dp3393
(((g3
g4
tp3394
(g6
Ntp3395
(g8
Ntp3396
(g10
Ntp3397
g21
tp3398
Ntp3399
F1.0
saI424
aa(lp3400
(dp3401
(((g3
g4
tp3402
(g6
Ntp3403
(g8
Ntp3404
(g10
Ntp3405
g21
tp3406
Ntp3407
F1.0
saI425
aa(lp3408
(dp3409
(((g3
g4
tp3410
(g6
Ntp3411
(g8
Ntp3412
(g10
Ntp3413
g21
tp3414
Ntp3415
F1.0
saI426
aa(lp3416
(dp3417
(((g3
g41
tp3418
(g6
Ntp3419
(g8
Ntp3420
(g10
Ntp3421
g21
tp3422
g21
tp3423
F3.5950563011501164
saI427
aa(lp3424
(dp3425
(((g3
g4
tp3426
(g6
Ntp3427
(g8
Ntp3428
(g10
Ntp3429
g21
tp3430
Ntp3431
F1.0
saI428
aa(lp3432
(dp3433
(((g3
g41
tp3434
(g6
Ntp3435
(g8
Ntp3436
(g10
Ntp3437
g21
tp3438
g21
tp3439
F3.355797855977599
saI429
aa(lp3440
(dp3441
(((g3
g41
tp3442
(g6
Ntp3443
(g8
Ntp3444
(g10
Ntp3445
g21
tp3446
g21
tp3447
F3.1524281775809593
saI430
aa(lp3448
(dp3449
(((g3
g41
tp3450
(g6
Ntp3451
(g8
Ntp3452
(g10
Ntp3453
g8
tp3454
g8
tp3455
F3.0009549783425347
saI431
aa(lp3456
(dp3457
(((g3
g41
tp3458
(g6
Ntp3459
(g8
Ntp3460
(g10
Ntp3461
g21
tp3462
g21
tp3463
F2.9795639509438154
saI432
aa(lp3464
(dp3465
(((g3
g4
tp3466
(g6
Ntp3467
(g8
Ntp3468
(g10
Ntp3469
g21
tp3470
g21
tp3471
F-1.0
saI433
aa(lp3472
(dp3473
(((g3
g4
tp3474
(g6
Ntp3475
(g8
Ntp3476
(g10
Ntp3477
g21
tp3478
Ntp3479
F1.0
saI434
aa(lp3480
(dp3481
(((g3
g4
tp3482
(g6
Ntp3483
(g8
Ntp3484
(g10
Ntp3485
g21
tp3486
Ntp3487
F1.0
saI435
aa(lp3488
(dp3489
(((g3
g4
tp3490
(g6
Ntp3491
(g8
Ntp3492
(g10
Ntp3493
g21
tp3494
Ntp3495
F1.0
saI436
aa(lp3496
(dp3497
(((g3
g4
tp3498
(g6
Ntp3499
(g8
Ntp3500
(g10
Ntp3501
g21
tp3502
Ntp3503
F1.0
saI437
aa(lp3504
(dp3505
(((g3
g41
tp3506
(g6
Ntp3507
(g8
Ntp3508
(g10
Ntp3509
g21
tp3510
g21
tp3511
F2.8326293583022433
saI438
aa(lp3512
(dp3513
(((g3
g4
tp3514
(g6
Ntp3515
(g8
Ntp3516
(g10
Ntp3517
g21
tp3518
g21
tp3519
F-1.0
saI439
aa(lp3520
(dp3521
(((g3
g4
tp3522
(g6
Ntp3523
(g8
Ntp3524
(g10
Ntp3525
g21
tp3526
Ntp3527
F1.0
saI440
aa(lp3528
(dp3529
(((g3
g4
tp3530
(g6
Ntp3531
(g8
Ntp3532
(g10
Ntp3533
g21
tp3534
Ntp3535
F1.0
saI441
aa(lp3536
(dp3537
(((g3
g4
tp3538
(g6
Ntp3539
(g8
Ntp3540
(g10
Ntp3541
g21
tp3542
Ntp3543
F1.0
saI442
aa(lp3544
(dp3545
(((g3
g41
tp3546
(g6
Ntp3547
(g8
Ntp3548
(g10
Ntp3549
g21
tp3550
g21
tp3551
F4.207734954556907
saI443
aa(lp3552
(dp3553
(((g3
g4
tp3554
(g6
Ntp3555
(g8
Ntp3556
(g10
Ntp3557
g8
tp3558
Ntp3559
F1.0
saI444
aa(lp3560
(dp3561
(((g3
g4
tp3562
(g6
Ntp3563
(g8
Ntp3564
(g10
Ntp3565
g8
tp3566
g8
tp3567
F2.2553682775171007
saI445
aa(lp3568
(dp3569
(((g3
g41
tp3570
(g6
Ntp3571
(g8
Ntp3572
(g10
Ntp3573
g8
tp3574
g8
tp3575
F2.8508117315911545
saI446
aa(lp3576
(dp3577
(((g3
g41
tp3578
(g6
Ntp3579
(g8
Ntp3580
(g10
Ntp3581
g21
tp3582
g21
tp3583
F3.8765747113733706
saI447
aa(lp3584
(dp3585
(((g3
g4
tp3586
(g6
Ntp3587
(g8
Ntp3588
(g10
Ntp3589
g21
tp3590
Ntp3591
F1.0
saI448
aa(lp3592
(dp3593
(((g3
g4
tp3594
(g6
Ntp3595
(g8
Ntp3596
(g10
Ntp3597
g21
tp3598
Ntp3599
F1.0
saI449
aa(lp3600
(dp3601
(((g3
g4
tp3602
(g6
Ntp3603
(g8
Ntp3604
(g10
Ntp3605
g21
tp3606
Ntp3607
F1.0
saI450
aa(lp3608
(dp3609
(((g3
g4
tp3610
(g6
Ntp3611
(g8
Ntp3612
(g10
Ntp3613
g21
tp3614
Ntp3615
F1.0
saI451
aa(lp3616
(dp3617
(((g3
g41
tp3618
(g6
Ntp3619
(g8
Ntp3620
(g10
Ntp3621
g21
tp3622
g21
tp3623
F5.095088504667365
saI452
aa(lp3624
(dp3625
(((g3
g41
tp3626
(g6
Ntp3627
(g8
Ntp3628
(g10
Ntp3629
g10
tp3630
g10
tp3631
F3.3117930347734243
saI453
aa(lp3632
(dp3633
(((g3
g41
tp3634
(g6
Ntp3635
(g8
Ntp3636
(g10
Ntp3637
g21
tp3638
g21
tp3639
F4.630825228967261
saI454
aa(lp3640
(dp3641
(((g3
g4
tp3642
(g6
Ntp3643
(g8
Ntp3644
(g10
Ntp3645
g21
tp3646
g10
tp3647
F-1.0
saI455
aa(lp3648
(dp3649
(((g3
g4
tp3650
(g6
Ntp3651
(g8
Ntp3652
(g10
Ntp3653
g21
tp3654
Ntp3655
F1.0
saI456
aa(lp3656
(dp3657
(((g3
g4
tp3658
(g6
Ntp3659
(g8
Ntp3660
(g10
Ntp3661
g21
tp3662
Ntp3663
F1.0
saI457
aa(lp3664
(dp3665
(((g3
g41
tp3666
(g6
Ntp3667
(g8
Ntp3668
(g10
Ntp3669
g21
tp3670
Ntp3671
F1.0
saI458
aa(lp3672
(dp3673
(((g3
g41
tp3674
(g6
Ntp3675
(g8
Ntp3676
(g10
g8
tp3677
g21
tp3678
g10
tp3679
F0.5
saI459
aa(lp3680
(dp3681
(((g3
g4
tp3682
(g6
Ntp3683
(g8
Ntp3684
(g10
Ntp3685
g10
tp3686
Ntp3687
F1.0
saI460
aa(lp3688
(dp3689
(((g3
g4
tp3690
(g6
Ntp3691
(g8
Ntp3692
(g10
Ntp3693
g10
tp3694
Ntp3695
F1.0
saI461
aa(lp3696
(dp3697
(((g3
g41
tp3698
(g6
Ntp3699
(g8
Ntp3700
(g10
Ntp3701
g10
tp3702
Ntp3703
F1.0
saI462
aa(lp3704
(dp3705
(((g3
g41
tp3706
(g6
Ntp3707
(g8
Ntp3708
(g10
Ntp3709
g10
tp3710
g21
tp3711
F0.5
saI463
aa(lp3712
(dp3713
(((g3
g4
tp3714
(g6
Ntp3715
(g8
Ntp3716
(g10
Ntp3717
g10
tp3718
g8
tp3719
F0.5
saI464
aa(lp3720
(dp3721
(((g3
g4
tp3722
(g6
Ntp3723
(g8
Ntp3724
(g10
Ntp3725
g21
tp3726
Ntp3727
F1.0
saI465
aa(lp3728
(dp3729
(((g3
g4
tp3730
(g6
Ntp3731
(g8
Ntp3732
(g10
Ntp3733
g21
tp3734
Ntp3735
F1.0
saI466
aa(lp3736
(dp3737
(((g3
g4
tp3738
(g6
Ntp3739
(g8
Ntp3740
(g10
Ntp3741
g21
tp3742
Ntp3743
F1.0
saI467
aa(lp3744
(dp3745
(((g3
g41
tp3746
(g6
Ntp3747
(g8
Ntp3748
(g10
Ntp3749
g21
tp3750
g21
tp3751
F4.236201444622171
saI468
aa(lp3752
(dp3753
(((g3
g41
tp3754
(g6
Ntp3755
(g8
Ntp3756
(g10
Ntp3757
g21
tp3758
g21
tp3759
F3.900771227928846
saI469
aa(lp3760
(dp3761
(((g3
g41
tp3762
(g6
Ntp3763
(g8
Ntp3764
(g10
Ntp3765
g10
tp3766
g10
tp3767
F3.115024079557411
saI470
aa(lp3768
(dp3769
(((g3
g41
tp3770
(g6
Ntp3771
(g8
Ntp3772
(g10
Ntp3773
g21
tp3774
g21
tp3775
F3.615655543739519
saI471
aa(lp3776
(dp3777
(((g3
g41
tp3778
(g6
Ntp3779
(g8
Ntp3780
(g10
Ntp3781
g21
tp3782
g21
tp3783
F4.873307212178591
saI472
aa(lp3784
(dp3785
(((g3
g4
tp3786
(g6
Ntp3787
(g8
Ntp3788
(g10
Ntp3789
g21
tp3790
Ntp3791
F1.0
saI473
aa(lp3792
(dp3793
(((g3
g4
tp3794
(g6
Ntp3795
(g8
Ntp3796
(g10
Ntp3797
g21
tp3798
Ntp3799
F1.0
saI474
aa(lp3800
(dp3801
(((g3
g4
tp3802
(g6
Ntp3803
(g8
Ntp3804
(g10
Ntp3805
g21
tp3806
Ntp3807
F1.0
saI475
aa(lp3808
(dp3809
(((g3
g41
tp3810
(g6
Ntp3811
(g8
Ntp3812
(g10
Ntp3813
g21
tp3814
g21
tp3815
F4.442311130351802
saI476
aa(lp3816
(dp3817
(((g3
g4
tp3818
(g6
Ntp3819
(g8
Ntp3820
(g10
Ntp3821
g21
tp3822
Ntp3823
F1.0
saI477
aa(lp3824
(dp3825
(((g3
g41
tp3826
(g6
Ntp3827
(g8
Ntp3828
(g10
Ntp3829
g21
tp3830
g21
tp3831
F4.075964460799032
saI478
aa(lp3832
(dp3833
(((g3
g4
tp3834
(g6
Ntp3835
(g8
Ntp3836
(g10
Ntp3837
g21
tp3838
Ntp3839
F1.0
saI479
aa(lp3840
(dp3841
(((g3
g4
tp3842
(g6
Ntp3843
(g8
Ntp3844
(g10
Ntp3845
g21
tp3846
g8
tp3847
F0.5
saI480
aa(lp3848
(dp3849
(((g3
g41
tp3850
(g6
Ntp3851
(g8
Ntp3852
(g10
Ntp3853
g8
tp3854
g8
tp3855
F2.7231899718524812
saI481
aa(lp3856
(dp3857
(((g3
g41
tp3858
(g6
Ntp3859
(g8
Ntp3860
(g10
Ntp3861
g8
tp3862
g8
tp3863
F2.614711476074609
saI482
aa(lp3864
(dp3865
(((g3
g41
tp3866
(g6
Ntp3867
(g8
Ntp3868
(g10
Ntp3869
g10
tp3870
g10
tp3871
F2.9477704676237995
saI483
aa(lp3872
(dp3873
(((g3
g41
tp3874
(g6
Ntp3875
(g8
Ntp3876
(g10
Ntp3877
g8
tp3878
g8
tp3879
F2.5225047546634176
saI484
aa(lp3880
(dp3881
(((g3
g4
tp3882
(g6
Ntp3883
(g8
Ntp3884
(g10
Ntp3885
g10
tp3886
Ntp3887
F1.0
saI485
aa(lp3888
(dp3889
(((g3
g4
tp3890
(g6
Ntp3891
(g8
Ntp3892
(g10
Ntp3893
g10
tp3894
Ntp3895
F1.0
saI486
aa(lp3896
(dp3897
(((g3
g4
tp3898
(g6
Ntp3899
(g8
Ntp3900
(g10
Ntp3901
g10
tp3902
Ntp3903
F1.0
saI487
aa(lp3904
(dp3905
(((g3
g4
tp3906
(g6
Ntp3907
(g8
Ntp3908
(g10
Ntp3909
g10
tp3910
Ntp3911
F1.0
saI488
aa(lp3912
(dp3913
(((g3
g41
tp3914
(g6
Ntp3915
(g8
Ntp3916
(g10
Ntp3917
g10
tp3918
g21
tp3919
F0.5
saI489
aa(lp3920
(dp3921
(((g3
g41
tp3922
(g6
Ntp3923
(g8
Ntp3924
(g10
Ntp3925
g10
tp3926
g10
tp3927
F2.8056048974802295
saI490
aa(lp3928
(dp3929
(((g3
g4
tp3930
(g6
Ntp3931
(g8
Ntp3932
(g10
Ntp3933
g8
tp3934
g8
tp3935
F2.2170630358895353
saI491
aa(lp3936
(dp3937
(((g3
g4
tp3938
(g6
Ntp3939
(g8
Ntp3940
(g10
Ntp3941
g10
tp3942
Ntp3943
F1.0
saI492
aa(lp3944
(dp3945
(((g3
g41
tp3946
(g6
Ntp3947
(g8
Ntp3948
(g10
Ntp3949
g10
tp3950
g10
tp3951
F2.684764162858195
saI493
aa(lp3952
(dp3953
(((g3
g41
tp3954
(g6
Ntp3955
(g8
g21
tp3956
(g10
Ntp3957
g21
tp3958
g21
tp3959
I2
saI494
aa(lp3960
(dp3961
(((g3
g41
tp3962
(g6
Ntp3963
(g8
Ntp3964
(g10
Ntp3965
g21
tp3966
g10
tp3967
F0.5
saI495
aa(lp3968
(dp3969
(((g3
g4
tp3970
(g6
Ntp3971
(g8
Ntp3972
(g10
Ntp3973
g10
tp3974
Ntp3975
F1.0
saI496
aa(lp3976
(dp3977
(((g3
g41
tp3978
(g6
Ntp3979
(g8
Ntp3980
(g10
Ntp3981
g10
tp3982
g10
tp3983
F2.5820495384294655
saI497
aa(lp3984
(dp3985
(((g3
g41
tp3986
(g6
Ntp3987
(g8
Ntp3988
(g10
Ntp3989
g8
tp3990
g8
tp3991
F2.444129041463905
saI498
aa(lp3992
(dp3993
(((g3
g4
tp3994
(g6
Ntp3995
(g8
Ntp3996
(g10
Ntp3997
g10
tp3998
g21
tp3999
F-1.0
saI499
aa(lp4000
(dp4001
(((g3
g4
tp4002
(g6
Ntp4003
(g8
Ntp4004
(g10
Ntp4005
g10
tp4006
Ntp4007
F1.0
saI500
aa(lp4008
(dp4009
(((g3
g4
tp4010
(g6
Ntp4011
(g8
Ntp4012
(g10
Ntp4013
g10
tp4014
Ntp4015
F1.0
saI501
aa(lp4016
(dp4017
(((g3
g4
tp4018
(g6
Ntp4019
(g8
Ntp4020
(g10
Ntp4021
g10
tp4022
Ntp4023
F1.0
saI502
aa(lp4024
(dp4025
(((g3
g41
tp4026
(g6
Ntp4027
(g8
Ntp4028
(g10
Ntp4029
g10
tp4030
g10
tp4031
F2.494742107665046
saI503
aa(lp4032
(dp4033
(((g3
g41
tp4034
(g6
Ntp4035
(g8
Ntp4036
(g10
Ntp4037
g8
tp4038
g8
tp4039
F2.3775096852443194
saI504
aa(lp4040
(dp4041
(((g3
g4
tp4042
(g6
Ntp4043
(g8
Ntp4044
(g10
Ntp4045
g10
tp4046
Ntp4047
F1.0
saI505
aa(lp4048
(dp4049
(((g3
g4
tp4050
(g6
Ntp4051
(g8
g8
tp4052
(g10
Ntp4053
g10
tp4054
Ntp4055
I1
saI506
aa(lp4056
(dp4057
(((g3
g41
tp4058
(g6
Ntp4059
(g8
Ntp4060
(g10
Ntp4061
g10
tp4062
g10
tp4063
F2.4205307915152887
saI507
aa(lp4064
(dp4065
(((g3
g4
tp4066
(g6
Ntp4067
(g8
Ntp4068
(g10
Ntp4069
g21
tp4070
Ntp4071
F1.0
saI508
aa(lp4072
(dp4073
(((g3
g41
tp4074
(g6
Ntp4075
(g8
Ntp4076
(g10
Ntp4077
g21
tp4078
g21
tp4079
F3.764569791679177
saI509
aa(lp4080
(dp4081
(((g3
g41
tp4082
(g6
Ntp4083
(g8
Ntp4084
(g10
Ntp4085
g21
tp4086
g21
tp4087
F3.4998843229273007
saI510
aa(lp4088
(dp4089
(((g3
g41
tp4090
(g6
Ntp4091
(g8
Ntp4092
(g10
Ntp4093
g8
tp4094
g8
tp4095
F2.3208832324576716
saI511
aa(lp4096
(dp4097
(((g3
g41
tp4098
(g6
Ntp4099
(g8
Ntp4100
(g10
Ntp4101
g21
tp4102
g21
tp4103
F3.2749016744882056
saI512
aa(lp4104
(dp4105
(((g3
g41
tp4106
(g6
Ntp4107
(g8
Ntp4108
(g10
Ntp4109
g21
tp4110
g21
tp4111
F3.0836664233149746
saI513
aa(lp4112
(dp4113
(((g3
g41
tp4114
(g6
Ntp4115
(g8
Ntp4116
(g10
Ntp4117
g21
tp4118
g21
tp4119
F4.421116459817728
saI514
aa(lp4120
(dp4121
(((g3
g41
tp4122
(g6
Ntp4123
(g8
Ntp4124
(g10
Ntp4125
g8
tp4126
g8
tp4127
F2.2727507475890207
saI515
aa(lp4128
(dp4129
(((g3
g41
tp4130
(g6
Ntp4131
(g8
Ntp4132
(g10
Ntp4133
g21
tp4134
g10
tp4135
F0.5
saI516
aa(lp4136
(dp4137
(((g3
g41
tp4138
(g6
Ntp4139
(g8
g10
tp4140
(g10
Ntp4141
g10
tp4142
g10
tp4143
I2
saI517
aa(lp4144
(dp4145
(((g3
g41
tp4146
(g6
Ntp4147
(g8
Ntp4148
(g10
Ntp4149
g21
tp4150
g21
tp4151
F4.057948990845069
saI518
aa(lp4152
(dp4153
(((g3
g4
tp4154
(g6
Ntp4155
(g8
Ntp4156
(g10
Ntp4157
g21
tp4158
Ntp4159
F1.0
saI519
aa(lp4160
(dp4161
(((g3
g4
tp4162
(g6
g8
tp4163
(g8
Ntp4164
(g10
Ntp4165
g21
tp4166
g10
tp4167
I-1
saI520
aa(lp4168
(dp4169
(((g3
g4
tp4170
(g6
Ntp4171
(g8
Ntp4172
(g10
Ntp4173
g21
tp4174
Ntp4175
F1.0
saI521
aa(lp4176
(dp4177
(((g3
g4
tp4178
(g6
Ntp4179
(g8
Ntp4180
(g10
Ntp4181
g21
tp4182
Ntp4183
F1.0
saI522
aa(lp4184
(dp4185
(((g3
g41
tp4186
(g6
Ntp4187
(g8
Ntp4188
(g10
Ntp4189
g21
tp4190
g21
tp4191
F3.7492566422183087
saI523
aa(lp4192
(dp4193
(((g3
g41
tp4194
(g6
Ntp4195
(g8
Ntp4196
(g10
Ntp4197
g21
tp4198
g21
tp4199
F3.4868681458855626
saI524
aa(lp4200
(dp4201
(((g3
g4
tp4202
(g6
Ntp4203
(g8
Ntp4204
(g10
Ntp4205
g10
tp4206
Ntp4207
F1.0
saI525
aa(lp4208
(dp4209
(((g3
g4
tp4210
(g6
Ntp4211
(g8
Ntp4212
(g10
Ntp4213
g10
tp4214
Ntp4215
F1.0
saI526
aa(lp4216
(dp4217
(((g3
g41
tp4218
(g6
Ntp4219
(g8
Ntp4220
(g10
Ntp4221
g10
tp4222
Ntp4223
F1.0
saI527
aa(lp4224
(dp4225
(((g3
g41
tp4226
(g6
Ntp4227
(g8
Ntp4228
(g10
Ntp4229
g10
tp4230
g10
tp4231
F2.357451172787995
saI528
aa(lp4232
(dp4233
(((g3
g41
tp4234
(g6
Ntp4235
(g8
Ntp4236
(g10
Ntp4237
g21
tp4238
g21
tp4239
F4.763837924002728
saI529
aa(lp4240
(dp4241
(((g3
g41
tp4242
(g6
Ntp4243
(g8
Ntp4244
(g10
Ntp4245
g8
tp4246
g8
tp4247
F2.231838135450668
saI530
aa(lp4248
(dp4249
(((g3
g41
tp4250
(g6
Ntp4251
(g8
Ntp4252
(g10
Ntp4253
g10
tp4254
g10
tp4255
F2.303833496869796
saI531
aa(lp4256
(dp4257
(((g3
g41
tp4258
(g6
Ntp4259
(g8
Ntp4260
(g10
Ntp4261
g8
tp4262
g8
tp4263
F2.1970624151330678
saI532
aa(lp4264
(dp4265
(((g3
g41
tp4266
(g6
Ntp4267
(g8
Ntp4268
(g10
Ntp4269
g10
tp4270
g10
tp4271
F2.2582584723393264
saI533
aa(lp4272
(dp4273
(((g3
g4
tp4274
(g6
Ntp4275
(g8
Ntp4276
(g10
Ntp4277
g8
tp4278
g8
tp4279
F2.184503580506105
saI534
aa(lp4280
(dp4281
(((g3
g41
tp4282
(g6
Ntp4283
(g8
Ntp4284
(g10
Ntp4285
g10
tp4286
g10
tp4287
F2.2195197014884274
saI535
aa(lp4288
(dp4289
(((g3
g4
tp4290
(g6
Ntp4291
(g8
Ntp4292
(g10
Ntp4293
g10
tp4294
Ntp4295
F1.0
saI536
aa(lp4296
(dp4297
(((g3
g4
tp4298
(g6
Ntp4299
(g8
Ntp4300
(g10
Ntp4301
g10
tp4302
Ntp4303
F1.0
saI537
aa(lp4304
(dp4305
(((g3
g41
tp4306
(g6
Ntp4307
(g8
Ntp4308
(g10
Ntp4309
g10
tp4310
Ntp4311
F1.0
saI538
aa(lp4312
(dp4313
(((g3
g41
tp4314
(g6
Ntp4315
(g8
Ntp4316
(g10
Ntp4317
g10
tp4318
g10
tp4319
F2.1865917462651634
saI539
aa(lp4320
(dp4321
(((g3
g41
tp4322
(g6
Ntp4323
(g8
Ntp4324
(g10
Ntp4325
g21
tp4326
g21
tp4327
F5.849262235402319
saI540
aa(lp4328
(dp4329
(((g3
g4
tp4330
(g6
Ntp4331
(g8
Ntp4332
(g10
Ntp4333
g8
tp4334
g8
tp4335
F2.156828043430189
saI541
aa(lp4336
(dp4337
(((g3
g4
tp4338
(g6
Ntp4339
(g8
Ntp4340
(g10
Ntp4341
g10
tp4342
g21
tp4343
F-1.0
saI542
aa(lp4344
(dp4345
(((g3
g4
tp4346
(g6
Ntp4347
(g8
Ntp4348
(g10
Ntp4349
g10
tp4350
g21
tp4351
F-1.0
saI543
aa(lp4352
(dp4353
(((g3
g4
tp4354
(g6
Ntp4355
(g8
Ntp4356
(g10
Ntp4357
g10
tp4358
Ntp4359
F1.0
saI544
aa(lp4360
(dp4361
(((g3
g4
tp4362
(g6
Ntp4363
(g8
Ntp4364
(g10
Ntp4365
g10
tp4366
Ntp4367
F1.0
saI545
aa(lp4368
(dp4369
(((g3
g41
tp4370
(g6
Ntp4371
(g8
Ntp4372
(g10
Ntp4373
g10
tp4374
g10
tp4375
F2.158602984325389
saI546
aa(lp4376
(dp4377
(((g3
g4
tp4378
(g6
Ntp4379
(g8
Ntp4380
(g10
Ntp4381
g8
tp4382
g8
tp4383
F2.133303836915661
saI547
aa(lp4384
(dp4385
(((g3
g4
tp4386
(g6
Ntp4387
(g8
Ntp4388
(g10
Ntp4389
g10
tp4390
Ntp4391
F1.0
saI548
aa(lp4392
(dp4393
(((g3
g41
tp4394
(g6
Ntp4395
(g8
Ntp4396
(g10
Ntp4397
g10
tp4398
g8
tp4399
F1.9224175713617213
saI549
aa(lp4400
(dp4401
(((g3
g41
tp4402
(g6
Ntp4403
(g8
Ntp4404
(g10
Ntp4405
g21
tp4406
g21
tp4407
F5.271872900091972
saI550
aa(lp4408
(dp4409
(((g3
g4
tp4410
(g6
Ntp4411
(g8
Ntp4412
(g10
Ntp4413
g21
tp4414
Ntp4415
F1.0
saI551
aa(lp4416
(dp4417
(((g3
g4
tp4418
(g6
Ntp4419
(g8
Ntp4420
(g10
Ntp4421
g21
tp4422
Ntp4423
F1.0
saI552
aa(lp4424
(dp4425
(((g3
g4
tp4426
(g6
Ntp4427
(g8
Ntp4428
(g10
Ntp4429
g21
tp4430
Ntp4431
F1.0
saI553
aa(lp4432
(dp4433
(((g3
g4
tp4434
(g6
Ntp4435
(g8
Ntp4436
(g10
Ntp4437
g21
tp4438
Ntp4439
F1.0
saI554
aa(lp4440
(dp4441
(((g3
g4
tp4442
(g6
Ntp4443
(g8
Ntp4444
(g10
Ntp4445
g21
tp4446
Ntp4447
F1.0
saI555
aa(lp4448
(dp4449
(((g3
g41
tp4450
(g6
Ntp4451
(g8
Ntp4452
(g10
Ntp4453
g21
tp4454
g21
tp4455
F4.781091965078176
saI556
aa(lp4456
(dp4457
(((g3
g41
tp4458
(g6
Ntp4459
(g8
Ntp4460
(g10
g10
tp4461
g21
tp4462
g8
tp4463
F0.5
saI557
aa(lp4464
(dp4465
(((g3
g41
tp4466
(g6
Ntp4467
(g8
Ntp4468
(g10
Ntp4469
g8
tp4470
g21
tp4471
F0.5
saI558
aa(lp4472
(dp4473
(((g3
g41
tp4474
(g6
Ntp4475
(g8
Ntp4476
(g10
Ntp4477
g8
tp4478
g8
tp4479
F2.1675030528631076
saI559
aa(lp4480
(dp4481
(((g3
g41
tp4482
(g6
Ntp4483
(g8
Ntp4484
(g10
Ntp4485
g8
tp4486
g8
tp4487
F2.1423775949336417
saI560
aa(lp4488
(dp4489
(((g3
g4
tp4490
(g6
Ntp4491
(g8
Ntp4492
(g10
Ntp4493
g10
tp4494
Ntp4495
F1.0
saI561
aa(lp4496
(dp4497
(((g3
g4
tp4498
(g6
Ntp4499
(g8
g8
tp4500
(g10
Ntp4501
g10
tp4502
g21
tp4503
I-1
saI562
aa(lp4504
(dp4505
(((g3
g4
tp4506
(g6
Ntp4507
(g8
Ntp4508
(g10
Ntp4509
g10
tp4510
Ntp4511
F1.0
saI563
aa(lp4512
(dp4513
(((g3
g4
tp4514
(g6
Ntp4515
(g8
Ntp4516
(g10
Ntp4517
g10
tp4518
Ntp4519
F1.0
saI564
aa(lp4520
(dp4521
(((g3
g4
tp4522
(g6
Ntp4523
(g8
Ntp4524
(g10
Ntp4525
g10
tp4526
Ntp4527
F1.0
saI565
aa(lp4528
(dp4529
(((g3
g41
tp4530
(g6
Ntp4531
(g8
Ntp4532
(g10
Ntp4533
g10
tp4534
g10
tp4535
F2.1348125366765807
saI566
aa(lp4536
(dp4537
(((g3
g4
tp4538
(g6
Ntp4539
(g8
Ntp4540
(g10
Ntp4541
g10
tp4542
Ntp4543
F1.0
saI567
aa(lp4544
(dp4545
(((g3
g4
tp4546
(g6
Ntp4547
(g8
Ntp4548
(g10
Ntp4549
g10
tp4550
Ntp4551
F1.0
saI568
aa(lp4552
(dp4553
(((g3
g4
tp4554
(g6
Ntp4555
(g8
Ntp4556
(g10
Ntp4557
g10
tp4558
Ntp4559
F1.0
saI569
aa(lp4560
(dp4561
(((g3
g4
tp4562
(g6
Ntp4563
(g8
Ntp4564
(g10
Ntp4565
g10
tp4566
g10
tp4567
F-1.0
saI570
aa(lp4568
(dp4569
(((g3
g41
tp4570
(g6
Ntp4571
(g8
Ntp4572
(g10
Ntp4573
g10
tp4574
g10
tp4575
F2.1145906561750936
saI571
aa(lp4576
(dp4577
(((g3
g41
tp4578
(g6
Ntp4579
(g8
Ntp4580
(g10
Ntp4581
g21
tp4582
g21
tp4583
F4.363928170316449
saI572
aa(lp4584
(dp4585
(((g3
g4
tp4586
(g6
Ntp4587
(g8
Ntp4588
(g10
Ntp4589
g21
tp4590
Ntp4591
F1.0
saI573
aa(lp4592
(dp4593
(((g3
g4
tp4594
(g6
Ntp4595
(g8
Ntp4596
(g10
Ntp4597
g21
tp4598
Ntp4599
F1.0
saI574
aa(lp4600
(dp4601
(((g3
g4
tp4602
(g6
Ntp4603
(g8
Ntp4604
(g10
Ntp4605
g21
tp4606
Ntp4607
F1.0
saI575
aa(lp4608
(dp4609
(((g3
g41
tp4610
(g6
Ntp4611
(g8
Ntp4612
(g10
Ntp4613
g21
tp4614
g21
tp4615
F4.009338944768982
saI576
aa(lp4616
(dp4617
(((g3
g41
tp4618
(g6
Ntp4619
(g8
Ntp4620
(g10
Ntp4621
g21
tp4622
g21
tp4623
F3.7079381030536345
saI577
aa(lp4624
(dp4625
(((g3
g41
tp4626
(g6
Ntp4627
(g8
Ntp4628
(g10
Ntp4629
g21
tp4630
g21
tp4631
F3.4517473875955895
saI578
aa(lp4632
(dp4633
(((g3
g41
tp4634
(g6
Ntp4635
(g8
Ntp4636
(g10
Ntp4637
g10
tp4638
g10
tp4639
F3.5974020577488295
saI579
aa(lp4640
(dp4641
(((g3
g4
tp4642
(g6
Ntp4643
(g8
Ntp4644
(g10
Ntp4645
g21
tp4646
Ntp4647
F1.0
saI580
aa(lp4648
(dp4649
(((g3
g4
tp4650
(g6
Ntp4651
(g8
Ntp4652
(g10
Ntp4653
g21
tp4654
Ntp4655
F1.0
saI581
aa(lp4656
(dp4657
(((g3
g4
tp4658
(g6
Ntp4659
(g8
Ntp4660
(g10
Ntp4661
g21
tp4662
Ntp4663
F1.0
saI582
aa(lp4664
(dp4665
(((g3
g4
tp4666
(g6
Ntp4667
(g8
Ntp4668
(g10
Ntp4669
g21
tp4670
Ntp4671
F1.0
saI583
aa(lp4672
(dp4673
(((g3
g4
tp4674
(g6
Ntp4675
(g8
Ntp4676
(g10
Ntp4677
g21
tp4678
Ntp4679
F1.0
saI584
aa(lp4680
(dp4681
(((g3
g41
tp4682
(g6
Ntp4683
(g8
Ntp4684
(g10
Ntp4685
g21
tp4686
g21
tp4687
F3.233985279456251
saI585
aa(lp4688
(dp4689
(((g3
g4
tp4690
(g6
Ntp4691
(g8
Ntp4692
(g10
Ntp4693
g21
tp4694
g21
tp4695
F-1.0
saI586
aa(lp4696
(dp4697
(((g3
g4
tp4698
(g6
Ntp4699
(g8
Ntp4700
(g10
Ntp4701
g21
tp4702
Ntp4703
F1.0
saI587
aa(lp4704
(dp4705
(((g3
g4
tp4706
(g6
Ntp4707
(g8
Ntp4708
(g10
Ntp4709
g21
tp4710
Ntp4711
F1.0
saI588
aa(lp4712
(dp4713
(((g3
g41
tp4714
(g6
Ntp4715
(g8
Ntp4716
(g10
Ntp4717
g21
tp4718
g21
tp4719
F3.0488874875378134
saI589
aa(lp4720
(dp4721
(((g3
g4
tp4722
(g6
Ntp4723
(g8
Ntp4724
(g10
Ntp4725
g21
tp4726
Ntp4727
F1.0
saI590
aa(lp4728
(dp4729
(((g3
g4
tp4730
(g6
Ntp4731
(g8
Ntp4732
(g10
Ntp4733
g21
tp4734
Ntp4735
F1.0
saI591
aa(lp4736
(dp4737
(((g3
g4
tp4738
(g6
Ntp4739
(g8
Ntp4740
(g10
Ntp4741
g21
tp4742
Ntp4743
F1.0
saI592
aa(lp4744
(dp4745
(((g3
g4
tp4746
(g6
Ntp4747
(g8
Ntp4748
(g10
Ntp4749
g21
tp4750
Ntp4751
F1.0
saI593
aa(lp4752
(dp4753
(((g3
g4
tp4754
(g6
Ntp4755
(g8
Ntp4756
(g10
Ntp4757
g21
tp4758
Ntp4759
F1.0
saI594
aa(lp4760
(dp4761
(((g3
g41
tp4762
(g6
Ntp4763
(g8
Ntp4764
(g10
Ntp4765
g21
tp4766
g21
tp4767
F2.8915543644071415
saI595
aa(lp4768
(dp4769
(((g3
g41
tp4770
(g6
Ntp4771
(g8
Ntp4772
(g10
Ntp4773
g21
tp4774
g21
tp4775
F2.75782120974607
saI596
aa(lp4776
(dp4777
(((g3
g41
tp4778
(g6
Ntp4779
(g8
Ntp4780
(g10
Ntp4781
g21
tp4782
g21
tp4783
F2.6441480282841594
saI597
aa(lp4784
(dp4785
(((g3
g4
tp4786
(g6
Ntp4787
(g8
Ntp4788
(g10
Ntp4789
g8
tp4790
g8
tp4791
F2.113308261378312
saI598
aa(lp4792
(dp4793
(((g3
g4
tp4794
(g6
Ntp4795
(g8
Ntp4796
(g10
Ntp4797
g21
tp4798
Ntp4799
F1.0
saI599
aa(lp4800
(dp4801
(((g3
g41
tp4802
(g6
Ntp4803
(g8
Ntp4804
(g10
Ntp4805
g21
tp4806
g21
tp4807
F4.047525824041536
saI600
aa(lp4808
(dp4809
(((g3
g4
tp4810
(g6
Ntp4811
(g8
Ntp4812
(g10
Ntp4813
g10
tp4814
Ntp4815
F1.0
saI601
aa(lp4816
(dp4817
(((g3
g4
tp4818
(g6
Ntp4819
(g8
Ntp4820
(g10
Ntp4821
g10
tp4822
Ntp4823
F1.0
saI602
aa(lp4824
(dp4825
(((g3
g4
tp4826
(g6
Ntp4827
(g8
Ntp4828
(g10
Ntp4829
g10
tp4830
g10
tp4831
F-1.0
saI603
aa(lp4832
(dp4833
(((g3
g4
tp4834
(g6
Ntp4835
(g8
Ntp4836
(g10
Ntp4837
g10
tp4838
Ntp4839
F1.0
saI604
aa(lp4840
(dp4841
(((g3
g41
tp4842
(g6
Ntp4843
(g8
Ntp4844
(g10
Ntp4845
g10
tp4846
g21
tp4847
F0.5
saI605
aa(lp4848
(dp4849
(((g3
g41
tp4850
(g6
Ntp4851
(g8
Ntp4852
(g10
Ntp4853
g10
tp4854
g10
tp4855
F3.357791749086505
saI606
aa(lp4856
(dp4857
(((g3
g41
tp4858
(g6
Ntp4859
(g8
Ntp4860
(g10
Ntp4861
g8
tp4862
g8
tp4863
F2.1210209556935955
saI607
aa(lp4864
(dp4865
(((g3
g41
tp4866
(g6
Ntp4867
(g8
Ntp4868
(g10
Ntp4869
g10
tp4870
g10
tp4871
F3.154122986723529
saI608
aa(lp4872
(dp4873
(((g3
g4
tp4874
(g6
Ntp4875
(g8
Ntp4876
(g10
Ntp4877
g8
tp4878
g8
tp4879
F2.096312022171565
saI609
aa(lp4880
(dp4881
(((g3
g41
tp4882
(g6
Ntp4883
(g8
Ntp4884
(g10
Ntp4885
g10
tp4886
g10
tp4887
F2.9810045387149997
saI610
aa(lp4888
(dp4889
(((g3
g41
tp4890
(g6
Ntp4891
(g8
Ntp4892
(g10
Ntp4893
g21
tp4894
g21
tp4895
F5.240396950435305
saI611
aa(lp4896
(dp4897
(((g3
g41
tp4898
(g6
Ntp4899
(g8
Ntp4900
(g10
Ntp4901
g10
tp4902
g10
tp4903
F2.8338538579077497
saI612
aa(lp4904
(dp4905
(((g3
g41
tp4906
(g6
Ntp4907
(g8
Ntp4908
(g10
Ntp4909
g8
tp4910
g8
tp4911
F2.1028678123395563
saI613
aa(lp4912
(dp4913
(((g3
g41
tp4914
(g6
Ntp4915
(g8
Ntp4916
(g10
Ntp4917
g10
tp4918
g10
tp4919
F2.7087757792215874
saI614
aa(lp4920
(dp4921
(((g3
g4
tp4922
(g6
Ntp4923
(g8
Ntp4924
(g10
Ntp4925
g8
tp4926
g8
tp4927
F2.0818652188458304
saI615
aa(lp4928
(dp4929
(((g3
g41
tp4930
(g6
Ntp4931
(g8
Ntp4932
(g10
Ntp4933
g10
tp4934
g10
tp4935
F2.6024594123383493
saI616
aa(lp4936
(dp4937
(((g3
g41
tp4938
(g6
Ntp4939
(g8
Ntp4940
(g10
Ntp4941
g8
tp4942
g8
tp4943
F2.087437640488623
saI617
aa(lp4944
(dp4945
(((g3
g4
tp4946
(g6
Ntp4947
(g8
Ntp4948
(g10
Ntp4949
g10
tp4950
Ntp4951
F1.0
saI618
aa(lp4952
(dp4953
(((g3
g4
tp4954
(g6
Ntp4955
(g8
Ntp4956
(g10
Ntp4957
g10
tp4958
Ntp4959
F1.0
saI619
aa(lp4960
(dp4961
(((g3
g4
tp4962
(g6
Ntp4963
(g8
Ntp4964
(g10
Ntp4965
g10
tp4966
Ntp4967
F1.0
saI620
aa(lp4968
(dp4969
(((g3
g41
tp4970
(g6
Ntp4971
(g8
Ntp4972
(g10
Ntp4973
g10
tp4974
g10
tp4975
F2.512090500487597
saI621
aa(lp4976
(dp4977
(((g3
g41
tp4978
(g6
Ntp4979
(g8
Ntp4980
(g10
Ntp4981
g8
tp4982
g8
tp4983
F2.0743219944153295
saI622
aa(lp4984
(dp4985
(((g3
g4
tp4986
(g6
Ntp4987
(g8
Ntp4988
(g10
Ntp4989
g10
tp4990
Ntp4991
F1.0
saI623
aa(lp4992
(dp4993
(((g3
g4
tp4994
(g6
Ntp4995
(g8
Ntp4996
(g10
Ntp4997
g10
tp4998
Ntp4999
F1.0
saI624
aa(lp5000
(dp5001
(((g3
g4
tp5002
(g6
Ntp5003
(g8
Ntp5004
(g10
Ntp5005
g10
tp5006
Ntp5007
F1.0
saI625
aa(lp5008
(dp5009
(((g3
g4
tp5010
(g6
Ntp5011
(g8
Ntp5012
(g10
Ntp5013
g10
tp5014
Ntp5015
F1.0
saI626
aa(lp5016
(dp5017
(((g3
g41
tp5018
(g6
Ntp5019
(g8
Ntp5020
(g10
Ntp5021
g10
tp5022
g10
tp5023
F2.4352769254144575
saI627
aa(lp5024
(dp5025
(((g3
g4
tp5026
(g6
Ntp5027
(g8
Ntp5028
(g10
Ntp5029
g21
tp5030
Ntp5031
F1.0
saI628
aa(lp5032
(dp5033
(((g3
g4
tp5034
(g6
Ntp5035
(g8
Ntp5036
(g10
Ntp5037
g21
tp5038
Ntp5039
F1.0
saI629
aa(lp5040
(dp5041
(((g3
g41
tp5042
(g6
Ntp5043
(g8
Ntp5044
(g10
Ntp5045
g21
tp5046
g21
tp5047
F4.754337407870009
saI630
aa(lp5048
(dp5049
(((g3
g41
tp5050
(g6
Ntp5051
(g8
Ntp5052
(g10
Ntp5053
g21
tp5054
g21
tp5055
F5.841186796689508
saI631
aa(lp5056
(dp5057
(((g3
g4
tp5058
(g6
Ntp5059
(g8
Ntp5060
(g10
Ntp5061
g21
tp5062
Ntp5063
F1.0
saI632
aa(lp5064
(dp5065
(((g3
g4
tp5066
(g6
Ntp5067
(g8
Ntp5068
(g10
Ntp5069
g21
tp5070
Ntp5071
F1.0
saI633
aa(lp5072
(dp5073
(((g3
g4
tp5074
(g6
Ntp5075
(g8
Ntp5076
(g10
Ntp5077
g21
tp5078
g8
tp5079
F0.5
saI634
aa(lp5080
(dp5081
(((g3
g41
tp5082
(g6
Ntp5083
(g8
Ntp5084
(g10
Ntp5085
g8
tp5086
g8
tp5087
F2.06317369525303
saI635
aa(lp5088
(dp5089
(((g3
g41
tp5090
(g6
Ntp5091
(g8
Ntp5092
(g10
g10
tp5093
g8
tp5094
g10
tp5095
F0.5
saI636
aa(lp5096
(dp5097
(((g3
g41
tp5098
(g6
Ntp5099
(g8
Ntp5100
(g10
Ntp5101
g8
tp5102
g8
tp5103
F2.053697640965076
saI637
aa(lp5104
(dp5105
(((g3
g41
tp5106
(g6
Ntp5107
(g8
Ntp5108
(g10
Ntp5109
g8
tp5110
g8
tp5111
F2.0456429948203145
saI638
aa(lp5112
(dp5113
(((g3
g41
tp5114
(g6
Ntp5115
(g8
Ntp5116
(g10
Ntp5117
g10
tp5118
g10
tp5119
F2.369985386602289
saI639
aa(lp5120
(dp5121
(((g3
g41
tp5122
(g6
Ntp5123
(g8
Ntp5124
(g10
Ntp5125
g8
tp5126
g8
tp5127
F2.0387965455972674
saI640
aa(lp5128
(dp5129
(((g3
g4
tp5130
(g6
Ntp5131
(g8
g10
tp5132
(g10
Ntp5133
g10
tp5134
g21
tp5135
F-1.0
saI641
aa(lp5136
(dp5137
(((g3
g41
tp5138
(g6
Ntp5139
(g8
g10
tp5140
(g10
Ntp5141
g10
tp5142
g10
tp5143
F2.0
saI642
aa(lp5144
(dp5145
(((g3
g4
tp5146
(g6
Ntp5147
(g8
Ntp5148
(g10
Ntp5149
g10
tp5150
Ntp5151
F1.0
saI643
aa(lp5152
(dp5153
(((g3
g41
tp5154
(g6
Ntp5155
(g8
Ntp5156
(g10
Ntp5157
g10
tp5158
g10
tp5159
F2.3144875786119457
saI644
aa(lp5160
(dp5161
(((g3
g41
tp5162
(g6
Ntp5163
(g8
Ntp5164
(g10
Ntp5165
g21
tp5166
g21
tp5167
F6.765008777186082
saI645
aa(lp5168
(dp5169
(((g3
g41
tp5170
(g6
Ntp5171
(g8
Ntp5172
(g10
Ntp5173
g21
tp5174
g21
tp5175
F6.05025746060817
saI646
aa(lp5176
(dp5177
(((g3
g4
tp5178
(g6
Ntp5179
(g8
Ntp5180
(g10
Ntp5181
g8
tp5182
g8
tp5183
F2.069585436018956
saI647
aa(lp5184
(dp5185
(((g3
g4
tp5186
(g6
Ntp5187
(g8
Ntp5188
(g10
Ntp5189
g21
tp5190
Ntp5191
F1.0
saI648
aa(lp5192
(dp5193
(((g3
g4
tp5194
(g6
Ntp5195
(g8
Ntp5196
(g10
Ntp5197
g21
tp5198
Ntp5199
F1.0
saI649
aa(lp5200
(dp5201
(((g3
g4
tp5202
(g6
Ntp5203
(g8
Ntp5204
(g10
Ntp5205
g21
tp5206
Ntp5207
F1.0
saI650
aa(lp5208
(dp5209
(((g3
g41
tp5210
(g6
Ntp5211
(g8
Ntp5212
(g10
Ntp5213
g21
tp5214
g21
tp5215
F5.442718841516944
saI651
aa(lp5216
(dp5217
(((g3
g41
tp5218
(g6
Ntp5219
(g8
Ntp5220
(g10
Ntp5221
g21
tp5222
g21
tp5223
F4.926311015289403
saI652
aa(lp5224
(dp5225
(((g3
g4
tp5226
(g6
Ntp5227
(g8
Ntp5228
(g10
Ntp5229
g21
tp5230
Ntp5231
F1.0
saI653
aa(lp5232
(dp5233
(((g3
g41
tp5234
(g6
Ntp5235
(g8
Ntp5236
(g10
Ntp5237
g21
tp5238
g21
tp5239
F5.987364362995992
saI654
aa(lp5240
(dp5241
(((g3
g41
tp5242
(g6
Ntp5243
(g8
Ntp5244
(g10
Ntp5245
g10
tp5246
g10
tp5247
F2.2673144418201536
saI655
aa(lp5248
(dp5249
(((g3
g41
tp5250
(g6
Ntp5251
(g8
Ntp5252
(g10
Ntp5253
g8
tp5254
g8
tp5255
F2.032977063757677
saI656
aa(lp5256
(dp5257
(((g3
g41
tp5258
(g6
Ntp5259
(g8
Ntp5260
(g10
g10
tp5261
g10
tp5262
g10
tp5263
I2
saI657
aa(lp5264
(dp5265
(((g3
g41
tp5266
(g6
Ntp5267
(g8
Ntp5268
(g10
Ntp5269
g8
tp5270
Ntp5271
F1.0
saI658
aa(lp5272
(dp5273
(((g3
g4
tp5274
(g6
Ntp5275
(g8
Ntp5276
(g10
Ntp5277
g8
tp5278
g8
tp5279
F2.0591476206161126
saI659
aa(lp5280
(dp5281
(((g3
g4
tp5282
(g6
Ntp5283
(g8
Ntp5284
(g10
Ntp5285
g10
tp5286
Ntp5287
F1.0
saI660
aa(lp5288
(dp5289
(((g3
g4
tp5290
(g6
Ntp5291
(g8
Ntp5292
(g10
Ntp5293
g10
tp5294
Ntp5295
F1.0
saI661
aa(lp5296
(dp5297
(((g3
g4
tp5298
(g6
Ntp5299
(g8
Ntp5300
(g10
Ntp5301
g10
tp5302
Ntp5303
F1.0
saI662
aa(lp5304
(dp5305
(((g3
g4
tp5306
(g6
Ntp5307
(g8
Ntp5308
(g10
Ntp5309
g10
tp5310
Ntp5311
F1.0
saI663
aa(lp5312
(dp5313
(((g3
g4
tp5314
(g6
Ntp5315
(g8
Ntp5316
(g10
Ntp5317
g10
tp5318
Ntp5319
F1.0
saI664
aa(lp5320
(dp5321
(((g3
g41
tp5322
(g6
Ntp5323
(g8
Ntp5324
(g10
Ntp5325
g10
tp5326
g10
tp5327
F2.2272172755471304
saI665
aa(lp5328
(dp5329
(((g3
g4
tp5330
(g6
Ntp5331
(g8
Ntp5332
(g10
Ntp5333
g8
tp5334
g8
tp5335
F2.0502754775236958
saI666
aa(lp5336
(dp5337
(((g3
g4
tp5338
(g6
Ntp5339
(g8
Ntp5340
(g10
Ntp5341
g10
tp5342
Ntp5343
F1.0
saI667
aa(lp5344
(dp5345
(((g3
g4
tp5346
(g6
Ntp5347
(g8
Ntp5348
(g10
Ntp5349
g10
tp5350
Ntp5351
F1.0
saI668
aa(lp5352
(dp5353
(((g3
g4
tp5354
(g6
Ntp5355
(g8
Ntp5356
(g10
Ntp5357
g10
tp5358
Ntp5359
F1.0
saI669
aa(lp5360
(dp5361
(((g3
g41
tp5362
(g6
Ntp5363
(g8
Ntp5364
(g10
Ntp5365
g10
tp5366
g10
tp5367
F2.1931346842150607
saI670
aa(lp5368
(dp5369
(((g3
g41
tp5370
(g6
Ntp5371
(g8
Ntp5372
(g10
Ntp5373
g21
tp5374
g21
tp5375
F5.389259708546593
saI671
aa(lp5376
(dp5377
(((g3
g4
tp5378
(g6
Ntp5379
(g8
Ntp5380
(g10
Ntp5381
g21
tp5382
Ntp5383
F1.0
saI672
aa(lp5384
(dp5385
(((g3
g41
tp5386
(g6
Ntp5387
(g8
Ntp5388
(g10
Ntp5389
g21
tp5390
g21
tp5391
F4.880870752264604
saI673
aa(lp5392
(dp5393
(((g3
g4
tp5394
(g6
Ntp5395
(g8
Ntp5396
(g10
Ntp5397
g10
tp5398
g8
tp5399
F0.5
saI674
aa(lp5400
(dp5401
(((g3
g4
tp5402
(g6
Ntp5403
(g8
Ntp5404
(g10
Ntp5405
g8
tp5406
Ntp5407
F1.0
saI675
aa(lp5408
(dp5409
(((g3
g4
tp5410
(g6
Ntp5411
(g8
Ntp5412
(g10
Ntp5413
g10
tp5414
Ntp5415
F1.0
saI676
aa(lp5416
(dp5417
(((g3
g4
tp5418
(g6
Ntp5419
(g8
Ntp5420
(g10
Ntp5421
g10
tp5422
Ntp5423
F1.0
saI677
aa(lp5424
(dp5425
(((g3
g4
tp5426
(g6
Ntp5427
(g8
Ntp5428
(g10
Ntp5429
g10
tp5430
Ntp5431
F1.0
saI678
aa(lp5432
(dp5433
(((g3
g41
tp5434
(g6
Ntp5435
(g8
Ntp5436
(g10
Ntp5437
g10
tp5438
g10
tp5439
F2.1641644815828016
saI679
aa(lp5440
(dp5441
(((g3
g41
tp5442
(g6
Ntp5443
(g8
Ntp5444
(g10
Ntp5445
g21
tp5446
g21
tp5447
F4.448740139424913
saI680
aa(lp5448
(dp5449
(((g3
g4
tp5450
(g6
Ntp5451
(g8
Ntp5452
(g10
Ntp5453
g21
tp5454
Ntp5455
F1.0
saI681
aa(lp5456
(dp5457
(((g3
g4
tp5458
(g6
Ntp5459
(g8
Ntp5460
(g10
Ntp5461
g21
tp5462
Ntp5463
F1.0
saI682
aa(lp5464
(dp5465
(((g3
g4
tp5466
(g6
Ntp5467
(g8
Ntp5468
(g10
Ntp5469
g21
tp5470
Ntp5471
F1.0
saI683
aa(lp5472
(dp5473
(((g3
g41
tp5474
(g6
Ntp5475
(g8
Ntp5476
(g10
Ntp5477
g21
tp5478
g21
tp5479
F4.081429118511176
saI684
aa(lp5480
(dp5481
(((g3
g41
tp5482
(g6
Ntp5483
(g8
Ntp5484
(g10
Ntp5485
g21
tp5486
g10
tp5487
F0.5
saI685
aa(lp5488
(dp5489
(((g3
g4
tp5490
(g6
Ntp5491
(g8
Ntp5492
(g10
Ntp5493
g8
tp5494
g8
tp5495
F2.0427341558951415
saI686
aa(lp5496
(dp5497
(((g3
g4
tp5498
(g6
Ntp5499
(g8
Ntp5500
(g10
Ntp5501
g10
tp5502
Ntp5503
F1.0
saI687
aa(lp5504
(dp5505
(((g3
g4
tp5506
(g6
Ntp5507
(g8
Ntp5508
(g10
Ntp5509
g10
tp5510
Ntp5511
F1.0
saI688
aa(lp5512
(dp5513
(((g3
g4
tp5514
(g6
Ntp5515
(g8
Ntp5516
(g10
Ntp5517
g10
tp5518
Ntp5519
F1.0
saI689
aa(lp5520
(dp5521
(((g3
g4
tp5522
(g6
Ntp5523
(g8
Ntp5524
(g10
Ntp5525
g10
tp5526
Ntp5527
F1.0
saI690
aa(lp5528
(dp5529
(((g3
g41
tp5530
(g6
Ntp5531
(g8
Ntp5532
(g10
Ntp5533
g10
tp5534
g10
tp5535
F2.1395398093453815
saI691
aa(lp5536
(dp5537
(((g3
g4
tp5538
(g6
Ntp5539
(g8
Ntp5540
(g10
Ntp5541
g8
tp5542
g8
tp5543
F2.0363240325108705
saI692
aa(lp5544
(dp5545
(((g3
g4
tp5546
(g6
Ntp5547
(g8
Ntp5548
(g10
Ntp5549
g10
tp5550
Ntp5551
F1.0
saI693
aa(lp5552
(dp5553
(((g3
g4
tp5554
(g6
Ntp5555
(g8
Ntp5556
(g10
Ntp5557
g10
tp5558
Ntp5559
F1.0
saI694
aa(lp5560
(dp5561
(((g3
g4
tp5562
(g6
Ntp5563
(g8
Ntp5564
(g10
Ntp5565
g10
tp5566
Ntp5567
F1.0
saI695
aa(lp5568
(dp5569
(((g3
g41
tp5570
(g6
Ntp5571
(g8
Ntp5572
(g10
Ntp5573
g10
tp5574
g10
tp5575
F2.118608837943574
saI696
aa(lp5576
(dp5577
(((g3
g4
tp5578
(g6
Ntp5579
(g8
Ntp5580
(g10
Ntp5581
g8
tp5582
g8
tp5583
F2.03087542763424
saI697
aa(lp5584
(dp5585
(((g3
g41
tp5586
(g6
Ntp5587
(g8
Ntp5588
(g10
Ntp5589
g10
tp5590
g10
tp5591
F2.100817512252038
saI698
aa(lp5592
(dp5593
(((g3
g41
tp5594
(g6
Ntp5595
(g8
g8
tp5596
(g10
Ntp5597
g8
tp5598
Ntp5599
I1
saI699
aa(lp5600
(dp5601
(((g3
g41
tp5602
(g6
Ntp5603
(g8
Ntp5604
(g10
Ntp5605
g8
tp5606
g8
tp5607
F2.0280305041940254
saI700
aa(lp5608
(dp5609
(((g3
g41
tp5610
(g6
Ntp5611
(g8
Ntp5612
(g10
Ntp5613
g10
tp5614
g10
tp5615
F2.0856948854142323
saI701
aa(lp5616
(dp5617
(((g3
g4
tp5618
(g6
Ntp5619
(g8
Ntp5620
(g10
Ntp5621
g10
tp5622
Ntp5623
F1.0
saI702
aa(lp5624
(dp5625
(((g3
g4
tp5626
(g6
Ntp5627
(g8
Ntp5628
(g10
Ntp5629
g10
tp5630
Ntp5631
F1.0
saI703
aa(lp5632
(dp5633
(((g3
g4
tp5634
(g6
Ntp5635
(g8
Ntp5636
(g10
Ntp5637
g10
tp5638
g8
tp5639
F0.5
saI704
aa(lp5640
(dp5641
(((g3
g4
tp5642
(g6
Ntp5643
(g8
Ntp5644
(g10
Ntp5645
g21
tp5646
Ntp5647
F1.0
saI705
aa(lp5648
(dp5649
(((g3
g4
tp5650
(g6
Ntp5651
(g8
Ntp5652
(g10
Ntp5653
g21
tp5654
Ntp5655
F1.0
saI706
aa(lp5656
(dp5657
(((g3
g41
tp5658
(g6
Ntp5659
(g8
Ntp5660
(g10
Ntp5661
g21
tp5662
Ntp5663
F1.0
saI707
aa(lp5664
(dp5665
(((g3
g41
tp5666
(g6
Ntp5667
(g8
Ntp5668
(g10
Ntp5669
g21
tp5670
g21
tp5671
F3.7692147507344997
saI708
aa(lp5672
(dp5673
(((g3
g41
tp5674
(g6
Ntp5675
(g8
Ntp5676
(g10
Ntp5677
g21
tp5678
g21
tp5679
F3.5038325381243247
saI709
aa(lp5680
(dp5681
(((g3
g4
tp5682
(g6
Ntp5683
(g8
Ntp5684
(g10
Ntp5685
g21
tp5686
g10
tp5687
F-1.0
saI710
aa(lp5688
(dp5689
(((g3
g4
tp5690
(g6
Ntp5691
(g8
Ntp5692
(g10
Ntp5693
g21
tp5694
Ntp5695
F1.0
saI711
aa(lp5696
(dp5697
(((g3
g4
tp5698
(g6
Ntp5699
(g8
Ntp5700
(g10
Ntp5701
g21
tp5702
Ntp5703
F1.0
saI712
aa(lp5704
(dp5705
(((g3
g4
tp5706
(g6
Ntp5707
(g8
Ntp5708
(g10
Ntp5709
g21
tp5710
Ntp5711
F1.0
saI713
aa(lp5712
(dp5713
(((g3
g41
tp5714
(g6
Ntp5715
(g8
Ntp5716
(g10
Ntp5717
g21
tp5718
g21
tp5719
F3.278257657405676
saI714
aa(lp5720
(dp5721
(((g3
g41
tp5722
(g6
Ntp5723
(g8
Ntp5724
(g10
g10
tp5725
g10
tp5726
g10
tp5727
F2.0
saI715
aa(lp5728
(dp5729
(((g3
g4
tp5730
(g6
Ntp5731
(g8
Ntp5732
(g10
Ntp5733
g21
tp5734
Ntp5735
F1.0
saI716
aa(lp5736
(dp5737
(((g3
g41
tp5738
(g6
Ntp5739
(g8
Ntp5740
(g10
Ntp5741
g21
tp5742
g21
tp5743
F3.086519008794825
saI717
aa(lp5744
(dp5745
(((g3
g41
tp5746
(g6
Ntp5747
(g8
Ntp5748
(g10
Ntp5749
g21
tp5750
g21
tp5751
F4.423541157475601
saI718
aa(lp5752
(dp5753
(((g3
g41
tp5754
(g6
Ntp5755
(g8
Ntp5756
(g10
Ntp5757
g8
tp5758
g8
tp5759
F2.0238259285649214
saI719
aa(lp5760
(dp5761
(((g3
g41
tp5762
(g6
Ntp5763
(g8
Ntp5764
(g10
Ntp5765
g8
tp5766
g8
tp5767
F2.0202520392801833
saI720
aa(lp5768
(dp5769
(((g3
g4
tp5770
(g6
Ntp5771
(g8
Ntp5772
(g10
Ntp5773
g10
tp5774
Ntp5775
F1.0
saI721
aa(lp5776
(dp5777
(((g3
g4
tp5778
(g6
Ntp5779
(g8
Ntp5780
(g10
Ntp5781
g10
tp5782
Ntp5783
F1.0
saI722
aa(lp5784
(dp5785
(((g3
g4
tp5786
(g6
Ntp5787
(g8
Ntp5788
(g10
Ntp5789
g10
tp5790
Ntp5791
F1.0
saI723
aa(lp5792
(dp5793
(((g3
g41
tp5794
(g6
Ntp5795
(g8
Ntp5796
(g10
Ntp5797
g10
tp5798
g10
tp5799
F2.0728406526020975
saI724
aa(lp5800
(dp5801
(((g3
g4
tp5802
(g6
Ntp5803
(g8
Ntp5804
(g10
Ntp5805
g21
tp5806
Ntp5807
F1.0
saI725
aa(lp5808
(dp5809
(((g3
g4
tp5810
(g6
Ntp5811
(g8
Ntp5812
(g10
Ntp5813
g21
tp5814
Ntp5815
F1.0
saI726
aa(lp5816
(dp5817
(((g3
g4
tp5818
(g6
Ntp5819
(g8
Ntp5820
(g10
Ntp5821
g21
tp5822
Ntp5823
F1.0
saI727
aa(lp5824
(dp5825
(((g3
g41
tp5826
(g6
Ntp5827
(g8
Ntp5828
(g10
Ntp5829
g21
tp5830
g21
tp5831
F4.06000998385426
saI728
aa(lp5832
(dp5833
(((g3
g41
tp5834
(g6
Ntp5835
(g8
Ntp5836
(g10
Ntp5837
g21
tp5838
g8
tp5839
F0.5
saI729
aa(lp5840
(dp5841
(((g3
g41
tp5842
(g6
Ntp5843
(g8
Ntp5844
(g10
Ntp5845
g8
tp5846
g8
tp5847
F2.017214233388156
saI730
aa(lp5848
(dp5849
(((g3
g41
tp5850
(g6
Ntp5851
(g8
Ntp5852
(g10
Ntp5853
g8
tp5854
g8
tp5855
F2.0146320983799324
saI731
aa(lp5856
(dp5857
(((g3
g41
tp5858
(g6
Ntp5859
(g8
Ntp5860
(g10
Ntp5861
g10
tp5862
g10
tp5863
F2.061914554711783
saI732
aa(lp5864
(dp5865
(((g3
g41
tp5866
(g6
Ntp5867
(g8
Ntp5868
(g10
Ntp5869
g21
tp5870
g21
tp5871
F3.7510084862761213
saI733
aa(lp5872
(dp5873
(((g3
g41
tp5874
(g6
Ntp5875
(g8
Ntp5876
(g10
Ntp5877
g21
tp5878
g21
tp5879
F3.488357213334703
saI734
aa(lp5880
(dp5881
(((g3
g41
tp5882
(g6
Ntp5883
(g8
Ntp5884
(g10
Ntp5885
g21
tp5886
g21
tp5887
F3.2651036313344974
saI735
aa(lp5888
(dp5889
(((g3
g41
tp5890
(g6
Ntp5891
(g8
Ntp5892
(g10
Ntp5893
g8
tp5894
g8
tp5895
F2.0124372836229427
saI736
aa(lp5896
(dp5897
(((g3
g41
tp5898
(g6
Ntp5899
(g8
Ntp5900
(g10
Ntp5901
g21
tp5902
g21
tp5903
F3.0753380866343227
saI737
aa(lp5904
(dp5905
(((g3
g41
tp5906
(g6
Ntp5907
(g8
Ntp5908
(g10
Ntp5909
g21
tp5910
Ntp5911
F1.0
saI738
aa(lp5912
(dp5913
(((g3
g41
tp5914
(g6
Ntp5915
(g8
Ntp5916
(g10
Ntp5917
g21
tp5918
g21
tp5919
F4.414037373639174
saI739
aa(lp5920
(dp5921
(((g3
g41
tp5922
(g6
Ntp5923
(g8
Ntp5924
(g10
Ntp5925
g8
tp5926
g8
tp5927
F2.0105716910795013
saI740
aa(lp5928
(dp5929
(((g3
g41
tp5930
(g6
Ntp5931
(g8
Ntp5932
(g10
Ntp5933
g10
tp5934
g10
tp5935
F2.0526273715050154
saI741
aa(lp5936
(dp5937
(((g3
g4
tp5938
(g6
Ntp5939
(g8
Ntp5940
(g10
Ntp5941
g8
tp5942
g8
tp5943
F2.026244113489104
saI742
aa(lp5944
(dp5945
(((g3
g4
tp5946
(g6
Ntp5947
(g8
Ntp5948
(g10
Ntp5949
g10
tp5950
Ntp5951
F1.0
saI743
aa(lp5952
(dp5953
(((g3
g4
tp5954
(g6
Ntp5955
(g8
Ntp5956
(g10
Ntp5957
g10
tp5958
Ntp5959
F1.0
saI744
aa(lp5960
(dp5961
(((g3
g41
tp5962
(g6
Ntp5963
(g8
Ntp5964
(g10
Ntp5965
g10
tp5966
g10
tp5967
F2.044733265779263
saI745
aa(lp5968
(dp5969
(((g3
g41
tp5970
(g6
Ntp5971
(g8
Ntp5972
(g10
Ntp5973
g8
tp5974
g8
tp5975
F2.008985937417576
saI746
aa(lp5976
(dp5977
(((g3
g4
tp5978
(g6
Ntp5979
(g8
Ntp5980
(g10
Ntp5981
g10
tp5982
Ntp5983
F1.0
saI747
aa(lp5984
(dp5985
(((g3
g41
tp5986
(g6
Ntp5987
(g8
Ntp5988
(g10
Ntp5989
g10
tp5990
g10
tp5991
F2.0380232759123733
saI748
aa(lp5992
(dp5993
(((g3
g4
tp5994
(g6
Ntp5995
(g8
Ntp5996
(g10
Ntp5997
g8
tp5998
g8
tp5999
F2.0223074964657384
saI749
aa(lp6000
(dp6001
(((g3
g41
tp6002
(g6
Ntp6003
(g8
Ntp6004
(g10
Ntp6005
g10
tp6006
g10
tp6007
F2.032319784525517
saI750
aa(lp6008
(dp6009
(((g3
g41
tp6010
(g6
Ntp6011
(g8
g10
tp6012
(g10
Ntp6013
g8
tp6014
Ntp6015
F1.0
saI751
aa(lp6016
(dp6017
(((g3
g4
tp6018
(g6
Ntp6019
(g8
Ntp6020
(g10
Ntp6021
g8
tp6022
Ntp6023
F1.0
saI752
aa(lp6024
(dp6025
(((g3
g4
tp6026
(g6
Ntp6027
(g8
Ntp6028
(g10
Ntp6029
g8
tp6030
g8
tp6031
F2.0189613719958777
saI753
aa(lp6032
(dp6033
(((g3
g41
tp6034
(g6
Ntp6035
(g8
Ntp6036
(g10
Ntp6037
g10
tp6038
g10
tp6039
F2.0274718168466896
saI754
aa(lp6040
(dp6041
(((g3
g41
tp6042
(g6
Ntp6043
(g8
Ntp6044
(g10
Ntp6045
g8
tp6046
g8
tp6047
F2.0076380468049395
saI755
aa(lp6048
(dp6049
(((g3
g41
tp6050
(g6
Ntp6051
(g8
Ntp6052
(g10
Ntp6053
g10
tp6054
g10
tp6055
F2.023351044319686
saI756
aa(lp6056
(dp6057
(((g3
g41
tp6058
(g6
Ntp6059
(g8
Ntp6060
(g10
Ntp6061
g21
tp6062
g8
tp6063
F0.5
saI757
aa(lp6064
(dp6065
(((g3
g41
tp6066
(g6
Ntp6067
(g8
Ntp6068
(g10
Ntp6069
g8
tp6070
g8
tp6071
F2.0064923397841987
saI758
aa(lp6072
(dp6073
(((g3
g4
tp6074
(g6
Ntp6075
(g8
Ntp6076
(g10
Ntp6077
g21
tp6078
Ntp6079
F1.0
saI759
aa(lp6080
(dp6081
(((g3
g41
tp6082
(g6
Ntp6083
(g8
Ntp6084
(g10
Ntp6085
g21
tp6086
g21
tp6087
F4.051931767593298
saI760
aa(lp6088
(dp6089
(((g3
g41
tp6090
(g6
Ntp6091
(g8
Ntp6092
(g10
Ntp6093
g21
tp6094
g21
tp6095
F3.7441420024543035
saI761
aa(lp6096
(dp6097
(((g3
g41
tp6098
(g6
Ntp6099
(g8
Ntp6100
(g10
Ntp6101
g21
tp6102
g21
tp6103
F3.482520702086158
saI762
aa(lp6104
(dp6105
(((g3
g41
tp6106
(g6
Ntp6107
(g8
Ntp6108
(g10
Ntp6109
g21
tp6110
g10
tp6111
F0.5
saI763
aa(lp6112
(dp6113
(((g3
g41
tp6114
(g6
Ntp6115
(g8
Ntp6116
(g10
Ntp6117
g10
tp6118
g10
tp6119
F2.019848387671733
saI764
aa(lp6120
(dp6121
(((g3
g4
tp6122
(g6
Ntp6123
(g8
Ntp6124
(g10
Ntp6125
g8
tp6126
g21
tp6127
F-1.0
saI765
aa(lp6128
(dp6129
(((g3
g4
tp6130
(g6
Ntp6131
(g8
Ntp6132
(g10
Ntp6133
g8
tp6134
g10
tp6135
F-1.0
saI766
aa(lp6136
(dp6137
(((g3
g4
tp6138
(g6
Ntp6139
(g8
Ntp6140
(g10
Ntp6141
g8
tp6142
g8
tp6143
F2.016117166196496
saI767
aa(lp6144
(dp6145
(((g3
g41
tp6146
(g6
Ntp6147
(g8
Ntp6148
(g10
Ntp6149
g10
tp6150
g10
tp6151
F2.016871129520973
saI768
aa(lp6152
(dp6153
(((g3
g41
tp6154
(g6
Ntp6155
(g8
Ntp6156
(g10
Ntp6157
g10
tp6158
g10
tp6159
F3.5143404600928267
saI769
aa(lp6160
(dp6161
(((g3
g4
tp6162
(g6
Ntp6163
(g8
Ntp6164
(g10
Ntp6165
g10
tp6166
Ntp6167
F1.0
saI770
aa(lp6168
(dp6169
(((g3
g4
tp6170
(g6
Ntp6171
(g8
Ntp6172
(g10
Ntp6173
g10
tp6174
Ntp6175
F1.0
saI771
aa(lp6176
(dp6177
(((g3
g4
tp6178
(g6
Ntp6179
(g8
Ntp6180
(g10
Ntp6181
g10
tp6182
Ntp6183
F1.0
saI772
aa(lp6184
(dp6185
(((g3
g4
tp6186
(g6
Ntp6187
(g8
Ntp6188
(g10
Ntp6189
g10
tp6190
Ntp6191
F1.0
saI773
aa(lp6192
(dp6193
(((g3
g41
tp6194
(g6
Ntp6195
(g8
Ntp6196
(g10
Ntp6197
g10
tp6198
g10
tp6199
F3.2871893910789027
saI774
aa(lp6200
(dp6201
(((g3
g41
tp6202
(g6
Ntp6203
(g8
Ntp6204
(g10
Ntp6205
g21
tp6206
g21
tp6207
F3.2601425967732345
saI775
aa(lp6208
(dp6209
(((g3
g41
tp6210
(g6
Ntp6211
(g8
g8
tp6212
(g10
Ntp6213
g10
tp6214
g8
tp6215
F0.5
saI776
aa(lp6216
(dp6217
(((g3
g41
tp6218
(g6
Ntp6219
(g8
Ntp6220
(g10
Ntp6221
g8
tp6222
g8
tp6223
F2.005518488816569
saI777
aa(lp6224
(dp6225
(((g3
g41
tp6226
(g6
Ntp6227
(g8
Ntp6228
(g10
Ntp6229
g8
tp6230
g8
tp6231
F2.0046907154940836
saI778
aa(lp6232
(dp6233
(((g3
g4
tp6234
(g6
Ntp6235
(g8
Ntp6236
(g10
Ntp6237
g10
tp6238
Ntp6239
F1.0
saI779
aa(lp6240
(dp6241
(((g3
g41
tp6242
(g6
Ntp6243
(g8
Ntp6244
(g10
Ntp6245
g10
tp6246
g10
tp6247
F3.0941109824170674
saI780
aa(lp6248
(dp6249
(((g3
g41
tp6250
(g6
Ntp6251
(g8
Ntp6252
(g10
Ntp6253
g21
tp6254
g21
tp6255
F3.0711212072572494
saI781
aa(lp6256
(dp6257
(((g3
g41
tp6258
(g6
Ntp6259
(g8
Ntp6260
(g10
Ntp6261
g21
tp6262
g21
tp6263
F2.910453026168662
saI782
aa(lp6264
(dp6265
(((g3
g4
tp6266
(g6
Ntp6267
(g8
Ntp6268
(g10
Ntp6269
g21
tp6270
Ntp6271
F1.0
saI783
aa(lp6272
(dp6273
(((g3
g4
tp6274
(g6
Ntp6275
(g8
Ntp6276
(g10
Ntp6277
g21
tp6278
Ntp6279
F1.0
saI784
aa(lp6280
(dp6281
(((g3
g41
tp6282
(g6
Ntp6283
(g8
Ntp6284
(g10
Ntp6285
g21
tp6286
g21
tp6287
F2.773885072243363
saI785
aa(lp6288
(dp6289
(((g3
g4
tp6290
(g6
Ntp6291
(g8
Ntp6292
(g10
Ntp6293
g21
tp6294
Ntp6295
F1.0
saI786
aa(lp6296
(dp6297
(((g3
g4
tp6298
(g6
Ntp6299
(g8
Ntp6300
(g10
Ntp6301
g21
tp6302
Ntp6303
F1.0
saI787
aa(lp6304
(dp6305
(((g3
g41
tp6306
(g6
Ntp6307
(g8
Ntp6308
(g10
Ntp6309
g21
tp6310
g21
tp6311
F2.6578023114068583
saI788
aa(lp6312
(dp6313
(((g3
g41
tp6314
(g6
Ntp6315
(g8
Ntp6316
(g10
Ntp6317
g21
tp6318
g8
tp6319
F0.5
saI789
aa(lp6320
(dp6321
(((g3
g4
tp6322
(g6
Ntp6323
(g8
Ntp6324
(g10
Ntp6325
g8
tp6326
g8
tp6327
F2.0136995912670215
saI790
aa(lp6328
(dp6329
(((g3
g41
tp6330
(g6
Ntp6331
(g8
Ntp6332
(g10
Ntp6333
g8
tp6334
g8
tp6335
F2.003987108169971
saI791
aa(lp6336
(dp6337
(((g3
g41
tp6338
(g6
Ntp6339
(g8
Ntp6340
(g10
Ntp6341
g10
tp6342
g10
tp6343
F2.9299943350545075
saI792
aa(lp6344
(dp6345
(((g3
g4
tp6346
(g6
Ntp6347
(g8
Ntp6348
(g10
Ntp6349
g8
tp6350
g8
tp6351
F2.0116446525769685
saI793
aa(lp6352
(dp6353
(((g3
g4
tp6354
(g6
Ntp6355
(g8
Ntp6356
(g10
Ntp6357
g10
tp6358
Ntp6359
F1.0
saI794
aa(lp6360
(dp6361
(((g3
g41
tp6362
(g6
Ntp6363
(g8
Ntp6364
(g10
Ntp6365
g10
tp6366
g10
tp6367
F2.7904951847963315
saI795
aa(lp6368
(dp6369
(((g3
g41
tp6370
(g6
Ntp6371
(g8
Ntp6372
(g10
Ntp6373
g8
tp6374
g8
tp6375
F2.0033890419444753
saI796
aa(lp6376
(dp6377
(((g3
g4
tp6378
(g6
Ntp6379
(g8
Ntp6380
(g10
Ntp6381
g10
tp6382
Ntp6383
F1.0
saI797
aa(lp6384
(dp6385
(((g3
g41
tp6386
(g6
Ntp6387
(g8
Ntp6388
(g10
Ntp6389
g10
tp6390
g10
tp6391
F2.6719209070768817
saI798
aa(lp6392
(dp6393
(((g3
g4
tp6394
(g6
Ntp6395
(g8
Ntp6396
(g10
Ntp6397
g8
tp6398
g8
tp6399
F2.009897954690423
saI799
aa(lp6400
(dp6401
(((g3
g4
tp6402
(g6
Ntp6403
(g8
Ntp6404
(g10
Ntp6405
g10
tp6406
Ntp6407
F1.0
saI800
aa(lp6408
(dp6409
(((g3
g4
tp6410
(g6
Ntp6411
(g8
Ntp6412
(g10
Ntp6413
g10
tp6414
Ntp6415
F1.0
saI801
aa(lp6416
(dp6417
(((g3
g41
tp6418
(g6
Ntp6419
(g8
Ntp6420
(g10
Ntp6421
g10
tp6422
g10
tp6423
F2.5711327710153493
saI802
aa(lp6424
(dp6425
(((g3
g41
tp6426
(g6
Ntp6427
(g8
Ntp6428
(g10
Ntp6429
g21
tp6430
g21
tp6431
F2.5591319646958297
saI803
aa(lp6432
(dp6433
(((g3
g4
tp6434
(g6
Ntp6435
(g8
Ntp6436
(g10
Ntp6437
g10
tp6438
Ntp6439
F1.0
saI804
aa(lp6440
(dp6441
(((g3
g4
tp6442
(g6
Ntp6443
(g8
Ntp6444
(g10
Ntp6445
g10
tp6446
Ntp6447
F1.0
saI805
aa(lp6448
(dp6449
(((g3
g41
tp6450
(g6
Ntp6451
(g8
Ntp6452
(g10
Ntp6453
g10
tp6454
g10
tp6455
F2.485462855363047
saI806
aa(lp6456
(dp6457
(((g3
g41
tp6458
(g6
Ntp6459
(g8
Ntp6460
(g10
Ntp6461
g8
tp6462
g8
tp6463
F2.002880685652804
saI807
aa(lp6464
(dp6465
(((g3
g4
tp6466
(g6
Ntp6467
(g8
Ntp6468
(g10
Ntp6469
g10
tp6470
Ntp6471
F1.0
saI808
aa(lp6472
(dp6473
(((g3
g4
tp6474
(g6
Ntp6475
(g8
Ntp6476
(g10
Ntp6477
g10
tp6478
Ntp6479
F1.0
saI809
aa(lp6480
(dp6481
(((g3
g4
tp6482
(g6
Ntp6483
(g8
Ntp6484
(g10
Ntp6485
g10
tp6486
Ntp6487
F1.0
saI810
aa(lp6488
(dp6489
(((g3
g41
tp6490
(g6
Ntp6491
(g8
Ntp6492
(g10
Ntp6493
g10
tp6494
g10
tp6495
F2.41264342705859
saI811
aa(lp6496
(dp6497
(((g3
g4
tp6498
(g6
Ntp6499
(g8
Ntp6500
(g10
Ntp6501
g21
tp6502
Ntp6503
F1.0
saI812
aa(lp6504
(dp6505
(((g3
g4
tp6506
(g6
Ntp6507
(g8
Ntp6508
(g10
Ntp6509
g21
tp6510
Ntp6511
F1.0
saI813
aa(lp6512
(dp6513
(((g3
g4
tp6514
(g6
Ntp6515
(g8
Ntp6516
(g10
Ntp6517
g21
tp6518
Ntp6519
F1.0
saI814
aa(lp6520
(dp6521
(((g3
g4
tp6522
(g6
Ntp6523
(g8
Ntp6524
(g10
Ntp6525
g21
tp6526
Ntp6527
F1.0
saI815
aa(lp6528
(dp6529
(((g3
g41
tp6530
(g6
Ntp6531
(g8
Ntp6532
(g10
Ntp6533
g21
tp6534
g21
tp6535
F2.4752621699914554
saI816
aa(lp6536
(dp6537
(((g3
g4
tp6538
(g6
Ntp6539
(g8
Ntp6540
(g10
Ntp6541
g21
tp6542
Ntp6543
F1.0
saI817
aa(lp6544
(dp6545
(((g3
g41
tp6546
(g6
Ntp6547
(g8
Ntp6548
(g10
Ntp6549
g21
tp6550
g21
tp6551
F2.403972844492737
saI818
aa(lp6552
(dp6553
(((g3
g41
tp6554
(g6
Ntp6555
(g8
Ntp6556
(g10
Ntp6557
g21
tp6558
g21
tp6559
F2.3433769178188264
saI819
aa(lp6560
(dp6561
(((g3
g41
tp6562
(g6
Ntp6563
(g8
Ntp6564
(g10
Ntp6565
g21
tp6566
g21
tp6567
F2.2918703801460025
saI820
aa(lp6568
(dp6569
(((g3
g41
tp6570
(g6
Ntp6571
(g8
Ntp6572
(g10
Ntp6573
g8
tp6574
g8
tp6575
F2.0024485828048837
saI821
aa(lp6576
(dp6577
(((g3
g41
tp6578
(g6
Ntp6579
(g8
Ntp6580
(g10
Ntp6581
g21
tp6582
g21
tp6583
F3.748089823124102
saI822
aa(lp6584
(dp6585
(((g3
g41
tp6586
(g6
Ntp6587
(g8
Ntp6588
(g10
Ntp6589
g10
tp6590
Ntp6591
F1.0
saI823
aa(lp6592
(dp6593
(((g3
g41
tp6594
(g6
Ntp6595
(g8
Ntp6596
(g10
Ntp6597
g10
tp6598
g10
tp6599
F2.3507469129998015
saI824
aa(lp6600
(dp6601
(((g3
g41
tp6602
(g6
Ntp6603
(g8
Ntp6604
(g10
Ntp6605
g21
tp6606
g21
tp6607
F3.4858763496554865
saI825
aa(lp6608
(dp6609
(((g3
g4
tp6610
(g6
Ntp6611
(g8
Ntp6612
(g10
Ntp6613
g21
tp6614
Ntp6615
F1.0
saI826
aa(lp6616
(dp6617
(((g3
g4
tp6618
(g6
Ntp6619
(g8
Ntp6620
(g10
Ntp6621
g21
tp6622
Ntp6623
F1.0
saI827
aa(lp6624
(dp6625
(((g3
g4
tp6626
(g6
Ntp6627
(g8
Ntp6628
(g10
Ntp6629
g21
tp6630
Ntp6631
F1.0
saI828
aa(lp6632
(dp6633
(((g3
g41
tp6634
(g6
Ntp6635
(g8
Ntp6636
(g10
Ntp6637
g21
tp6638
g21
tp6639
F3.2629948972071636
saI829
aa(lp6640
(dp6641
(((g3
g41
tp6642
(g6
Ntp6643
(g8
Ntp6644
(g10
g10
tp6645
g10
tp6646
g10
tp6647
F3.5
saI830
aa(lp6648
(dp6649
(((g3
g4
tp6650
(g6
Ntp6651
(g8
Ntp6652
(g10
Ntp6653
g10
tp6654
Ntp6655
F1.0
saI831
aa(lp6656
(dp6657
(((g3
g4
tp6658
(g6
Ntp6659
(g8
Ntp6660
(g10
Ntp6661
g10
tp6662
Ntp6663
F1.0
saI832
aa(lp6664
(dp6665
(((g3
g4
tp6666
(g6
Ntp6667
(g8
Ntp6668
(g10
Ntp6669
g10
tp6670
Ntp6671
F1.0
saI833
aa(lp6672
(dp6673
(((g3
g4
tp6674
(g6
Ntp6675
(g8
Ntp6676
(g10
Ntp6677
g10
tp6678
Ntp6679
F1.0
saI834
aa(lp6680
(dp6681
(((g3
g4
tp6682
(g6
Ntp6683
(g8
Ntp6684
(g10
Ntp6685
g10
tp6686
Ntp6687
F1.0
saI835
aa(lp6688
(dp6689
(((g3
g41
tp6690
(g6
Ntp6691
(g8
Ntp6692
(g10
Ntp6693
g10
tp6694
g10
tp6695
F2.2981348760498315
saI836
aa(lp6696
(dp6697
(((g3
g4
tp6698
(g6
Ntp6699
(g8
Ntp6700
(g10
Ntp6701
g8
tp6702
g8
tp6703
F2.0084132614868597
saI837
aa(lp6704
(dp6705
(((g3
g4
tp6706
(g6
Ntp6707
(g8
Ntp6708
(g10
Ntp6709
g10
tp6710
Ntp6711
F1.0
saI838
aa(lp6712
(dp6713
(((g3
g41
tp6714
(g6
g10
tp6715
(g8
Ntp6716
(g10
Ntp6717
g10
tp6718
g21
tp6719
F0.5
saI839
aa(lp6720
(dp6721
(((g3
g4
tp6722
(g6
Ntp6723
(g8
Ntp6724
(g10
Ntp6725
g10
tp6726
Ntp6727
F1.0
saI840
aa(lp6728
(dp6729
(((g3
g4
tp6730
(g6
Ntp6731
(g8
Ntp6732
(g10
g10
tp6733
g10
tp6734
g10
tp6735
I-1
saI841
aa(lp6736
(dp6737
(((g3
g4
tp6738
(g6
Ntp6739
(g8
Ntp6740
(g10
Ntp6741
g10
tp6742
Ntp6743
F1.0
saI842
aa(lp6744
(dp6745
(((g3
g41
tp6746
(g6
Ntp6747
(g8
Ntp6748
(g10
Ntp6749
g10
tp6750
g10
tp6751
F2.2534146446423566
saI843
aa(lp6752
(dp6753
(((g3
g4
tp6754
(g6
Ntp6755
(g8
Ntp6756
(g10
Ntp6757
g21
tp6758
Ntp6759
F1.0
saI844
aa(lp6760
(dp6761
(((g3
g4
tp6762
(g6
Ntp6763
(g8
Ntp6764
(g10
Ntp6765
g21
tp6766
Ntp6767
F1.0
saI845
aa(lp6768
(dp6769
(((g3
g41
tp6770
(g6
Ntp6771
(g8
Ntp6772
(g10
Ntp6773
g21
tp6774
g21
tp6775
F3.0735456626260893
saI846
aa(lp6776
(dp6777
(((g3
g4
tp6778
(g6
Ntp6779
(g8
Ntp6780
(g10
Ntp6781
g21
tp6782
Ntp6783
F1.0
saI847
aa(lp6784
(dp6785
(((g3
g4
tp6786
(g6
Ntp6787
(g8
Ntp6788
(g10
Ntp6789
g21
tp6790
Ntp6791
F1.0
saI848
aa(lp6792
(dp6793
(((g3
g4
tp6794
(g6
Ntp6795
(g8
Ntp6796
(g10
Ntp6797
g21
tp6798
Ntp6799
F1.0
saI849
aa(lp6800
(dp6801
(((g3
g4
tp6802
(g6
Ntp6803
(g8
Ntp6804
(g10
Ntp6805
g21
tp6806
Ntp6807
F1.0
saI850
aa(lp6808
(dp6809
(((g3
g41
tp6810
(g6
Ntp6811
(g8
Ntp6812
(g10
Ntp6813
g21
tp6814
g21
tp6815
F2.912513813232176
saI851
aa(lp6816
(dp6817
(((g3
g41
tp6818
(g6
Ntp6819
(g8
Ntp6820
(g10
Ntp6821
g8
tp6822
g8
tp6823
F3.502081295384151
saI852
aa(lp6824
(dp6825
(((g3
g4
tp6826
(g6
Ntp6827
(g8
Ntp6828
(g10
Ntp6829
g8
tp6830
g8
tp6831
F2.007151272263831
saI853
aa(lp6832
(dp6833
(((g3
g41
tp6834
(g6
Ntp6835
(g8
Ntp6836
(g10
Ntp6837
g21
tp6838
Ntp6839
F1.0
saI854
aa(lp6840
(dp6841
(((g3
g41
tp6842
(g6
Ntp6843
(g8
Ntp6844
(g10
Ntp6845
g21
tp6846
g21
tp6847
F2.7756367412473497
saI855
aa(lp6848
(dp6849
(((g3
g41
tp6850
(g6
g10
tp6851
(g8
Ntp6852
(g10
Ntp6853
g21
tp6854
g21
tp6855
I2
saI856
aa(lp6856
(dp6857
(((g3
g4
tp6858
(g6
Ntp6859
(g8
Ntp6860
(g10
Ntp6861
g21
tp6862
Ntp6863
F1.0
saI857
aa(lp6864
(dp6865
(((g3
g4
tp6866
(g6
Ntp6867
(g8
Ntp6868
(g10
Ntp6869
g21
tp6870
Ntp6871
F1.0
saI858
aa(lp6872
(dp6873
(((g3
g4
tp6874
(g6
Ntp6875
(g8
Ntp6876
(g10
Ntp6877
g21
tp6878
g21
tp6879
F-1.0
saI859
aa(lp6880
(dp6881
(((g3
g4
tp6882
(g6
Ntp6883
(g8
Ntp6884
(g10
Ntp6885
g21
tp6886
Ntp6887
F1.0
saI860
aa(lp6888
(dp6889
(((g3
g41
tp6890
(g6
Ntp6891
(g8
Ntp6892
(g10
Ntp6893
g21
tp6894
g21
tp6895
F2.6592912300602474
saI861
aa(lp6896
(dp6897
(((g3
g41
tp6898
(g6
Ntp6899
(g8
Ntp6900
(g10
Ntp6901
g8
tp6902
g8
tp6903
F4.776769101076528
saI862
aa(lp6904
(dp6905
(((g3
g4
tp6906
(g6
Ntp6907
(g8
Ntp6908
(g10
Ntp6909
g8
tp6910
g8
tp6911
F2.0060785814242563
saI863
aa(lp6912
(dp6913
(((g3
g4
tp6914
(g6
Ntp6915
(g8
Ntp6916
(g10
Ntp6917
g10
tp6918
Ntp6919
F1.0
saI864
aa(lp6920
(dp6921
(((g3
g4
tp6922
(g6
Ntp6923
(g8
Ntp6924
(g10
Ntp6925
g10
tp6926
Ntp6927
F1.0
saI865
aa(lp6928
(dp6929
(((g3
g41
tp6930
(g6
Ntp6931
(g8
Ntp6932
(g10
Ntp6933
g10
tp6934
g10
tp6935
F2.215402447946003
saI866
aa(lp6936
(dp6937
(((g3
g41
tp6938
(g6
Ntp6939
(g8
Ntp6940
(g10
Ntp6941
g8
tp6942
g8
tp6943
F4.360253735915049
saI867
aa(lp6944
(dp6945
(((g3
g41
tp6946
(g6
Ntp6947
(g8
Ntp6948
(g10
Ntp6949
g10
tp6950
g10
tp6951
F2.1830920807541028
saI868
aa(lp6952
(dp6953
(((g3
g4
tp6954
(g6
Ntp6955
(g8
Ntp6956
(g10
Ntp6957
g8
tp6958
g8
tp6959
F2.0051667942106177
saI869
aa(lp6960
(dp6961
(((g3
g41
tp6962
(g6
Ntp6963
(g8
Ntp6964
(g10
Ntp6965
g10
tp6966
g10
tp6967
F2.1556282686409873
saI870
aa(lp6968
(dp6969
(((g3
g41
tp6970
(g6
Ntp6971
(g8
Ntp6972
(g10
Ntp6973
g8
tp6974
g8
tp6975
F4.006215675527792
saI871
aa(lp6976
(dp6977
(((g3
g41
tp6978
(g6
Ntp6979
(g8
Ntp6980
(g10
Ntp6981
g10
tp6982
Ntp6983
F1.0
saI872
aa(lp6984
(dp6985
(((g3
g41
tp6986
(g6
Ntp6987
(g8
Ntp6988
(g10
Ntp6989
g10
tp6990
g10
tp6991
F2.132284028344839
saI873
aa(lp6992
(dp6993
(((g3
g4
tp6994
(g6
Ntp6995
(g8
Ntp6996
(g10
Ntp6997
g8
tp6998
g10
tp6999
F-1.0
saI874
aa(lp7000
(dp7001
(((g3
g4
tp7002
(g6
Ntp7003
(g8
Ntp7004
(g10
Ntp7005
g8
tp7006
g8
tp7007
F2.004391775079025
saI875
aa(lp7008
(dp7009
(((g3
g41
tp7010
(g6
Ntp7011
(g8
Ntp7012
(g10
Ntp7013
g10
tp7014
g10
tp7015
F2.1124414240931135
saI876
aa(lp7016
(dp7017
(((g3
g4
tp7018
(g6
Ntp7019
(g8
Ntp7020
(g10
Ntp7021
g8
tp7022
g8
tp7023
F2.0037330088171714
saI877
aa(lp7024
(dp7025
(((g3
g4
tp7026
(g6
Ntp7027
(g8
Ntp7028
(g10
Ntp7029
g21
tp7030
Ntp7031
F1.0
saI878
aa(lp7032
(dp7033
(((g3
g41
tp7034
(g6
Ntp7035
(g8
Ntp7036
(g10
Ntp7037
g21
tp7038
g21
tp7039
F4.0603975455512105
saI879
aa(lp7040
(dp7041
(((g3
g41
tp7042
(g6
Ntp7043
(g8
Ntp7044
(g10
Ntp7045
g10
tp7046
Ntp7047
F1.0
saI880
aa(lp7048
(dp7049
(((g3
g41
tp7050
(g6
Ntp7051
(g8
Ntp7052
(g10
Ntp7053
g10
tp7054
g10
tp7055
F2.0955752104791463
saI881
aa(lp7056
(dp7057
(((g3
g41
tp7058
(g6
Ntp7059
(g8
Ntp7060
(g10
Ntp7061
g8
tp7062
g8
tp7063
F3.705283324198623
saI882
aa(lp7064
(dp7065
(((g3
g4
tp7066
(g6
g8
tp7067
(g8
Ntp7068
(g10
Ntp7069
g10
tp7070
Ntp7071
I1
saI883
aa(lp7072
(dp7073
(((g3
g4
tp7074
(g6
Ntp7075
(g8
Ntp7076
(g10
Ntp7077
g10
tp7078
Ntp7079
F1.0
saI884
aa(lp7080
(dp7081
(((g3
g41
tp7082
(g6
Ntp7083
(g8
Ntp7084
(g10
Ntp7085
g10
tp7086
g10
tp7087
F2.0812389289072746
saI885
aa(lp7088
(dp7089
(((g3
g4
tp7090
(g6
Ntp7091
(g8
Ntp7092
(g10
Ntp7093
g10
tp7094
Ntp7095
F1.0
saI886
aa(lp7096
(dp7097
(((g3
g4
tp7098
(g6
Ntp7099
(g8
Ntp7100
(g10
Ntp7101
g10
tp7102
Ntp7103
F1.0
saI887
aa(lp7104
(dp7105
(((g3
g4
tp7106
(g6
Ntp7107
(g8
Ntp7108
(g10
Ntp7109
g10
tp7110
Ntp7111
F1.0
saI888
aa(lp7112
(dp7113
(((g3
g41
tp7114
(g6
Ntp7115
(g8
Ntp7116
(g10
Ntp7117
g10
tp7118
g10
tp7119
F2.0690530895711836
saI889
aa(lp7120
(dp7121
(((g3
g4
tp7122
(g6
Ntp7123
(g8
Ntp7124
(g10
Ntp7125
g21
tp7126
Ntp7127
F1.0
saI890
aa(lp7128
(dp7129
(((g3
g4
tp7130
(g6
Ntp7131
(g8
Ntp7132
(g10
Ntp7133
g21
tp7134
Ntp7135
F1.0
saI891
aa(lp7136
(dp7137
(((g3
g41
tp7138
(g6
Ntp7139
(g8
Ntp7140
(g10
Ntp7141
g21
tp7142
g21
tp7143
F3.7513379137185288
saI892
aa(lp7144
(dp7145
(((g3
g4
tp7146
(g6
Ntp7147
(g8
Ntp7148
(g10
Ntp7149
g21
tp7150
Ntp7151
F1.0
saI893
aa(lp7152
(dp7153
(((g3
g4
tp7154
(g6
Ntp7155
(g8
Ntp7156
(g10
Ntp7157
g21
tp7158
Ntp7159
F1.0
saI894
aa(lp7160
(dp7161
(((g3
g41
tp7162
(g6
Ntp7163
(g8
Ntp7164
(g10
Ntp7165
g21
tp7166
g21
tp7167
F3.4886372266607495
saI895
aa(lp7168
(dp7169
(((g3
g4
tp7170
(g6
Ntp7171
(g8
Ntp7172
(g10
Ntp7173
g21
tp7174
g8
tp7175
F0.5
saI896
aa(lp7176
(dp7177
(((g3
g41
tp7178
(g6
Ntp7179
(g8
Ntp7180
(g10
Ntp7181
g8
tp7182
Ntp7183
F1.0
saI897
aa(lp7184
(dp7185
(((g3
g41
tp7186
(g6
Ntp7187
(g8
Ntp7188
(g10
Ntp7189
g8
tp7190
g8
tp7191
F3.4494908255688297
saI898
aa(lp7192
(dp7193
(((g3
g4
tp7194
(g6
Ntp7195
(g8
Ntp7196
(g10
Ntp7197
g10
tp7198
Ntp7199
F1.0
saI899
aa(lp7200
(dp7201
(((g3
g41
tp7202
(g6
Ntp7203
(g8
Ntp7204
(g10
Ntp7205
g10
tp7206
g10
tp7207
F2.058695126135506
saI900
aa(lp7208
(dp7209
(((g3
g4
tp7210
(g6
Ntp7211
(g8
Ntp7212
(g10
Ntp7213
g8
tp7214
g8
tp7215
F2.0031730574945956
saI901
aa(lp7216
(dp7217
(((g3
g4
tp7218
(g6
Ntp7219
(g8
Ntp7220
(g10
Ntp7221
g10
tp7222
Ntp7223
F1.0
saI902
aa(lp7224
(dp7225
(((g3
g4
tp7226
(g6
Ntp7227
(g8
Ntp7228
(g10
Ntp7229
g10
tp7230
Ntp7231
F1.0
saI903
aa(lp7232
(dp7233
(((g3
g4
tp7234
(g6
Ntp7235
(g8
Ntp7236
(g10
Ntp7237
g10
tp7238
Ntp7239
F1.0
saI904
aa(lp7240
(dp7241
(((g3
g41
tp7242
(g6
Ntp7243
(g8
Ntp7244
(g10
Ntp7245
g10
tp7246
g10
tp7247
F2.04989085721518
saI905
aa(lp7248
(dp7249
(((g3
g4
tp7250
(g6
Ntp7251
(g8
Ntp7252
(g10
Ntp7253
g8
tp7254
g8
tp7255
F2.0026970988704065
saI906
aa(lp7256
(dp7257
(((g3
g4
tp7258
(g6
Ntp7259
(g8
Ntp7260
(g10
Ntp7261
g10
tp7262
Ntp7263
F1.0
saI907
aa(lp7264
(dp7265
(((g3
g4
tp7266
(g6
Ntp7267
(g8
Ntp7268
(g10
Ntp7269
g10
tp7270
Ntp7271
F1.0
saI908
aa(lp7272
(dp7273
(((g3
g4
tp7274
(g6
Ntp7275
(g8
Ntp7276
(g10
Ntp7277
g10
tp7278
Ntp7279
F1.0
saI909
aa(lp7280
(dp7281
(((g3
g41
tp7282
(g6
Ntp7283
(g8
Ntp7284
(g10
Ntp7285
g10
tp7286
g10
tp7287
F2.042407228632903
saI910
aa(lp7288
(dp7289
(((g3
g41
tp7290
(g6
Ntp7291
(g8
Ntp7292
(g10
Ntp7293
g8
tp7294
g8
tp7295
F3.2320672017335053
saI911
aa(lp7296
(dp7297
(((g3
g41
tp7298
(g6
Ntp7299
(g8
Ntp7300
(g10
Ntp7301
g10
tp7302
g10
tp7303
F2.0360461443379676
saI912
aa(lp7304
(dp7305
(((g3
g41
tp7306
(g6
Ntp7307
(g8
Ntp7308
(g10
Ntp7309
g8
tp7310
g8
tp7311
F3.0472571214734794
saI913
aa(lp7312
(dp7313
(((g3
g4
tp7314
(g6
Ntp7315
(g8
Ntp7316
(g10
Ntp7317
g10
tp7318
Ntp7319
F1.0
saI914
aa(lp7320
(dp7321
(((g3
g41
tp7322
(g6
Ntp7323
(g8
Ntp7324
(g10
Ntp7325
g10
tp7326
g10
tp7327
F2.0306392226872725
saI915
aa(lp7328
(dp7329
(((g3
g4
tp7330
(g6
Ntp7331
(g8
Ntp7332
(g10
Ntp7333
g8
tp7334
g8
tp7335
F2.0022925340398454
saI916
aa(lp7336
(dp7337
(((g3
g41
tp7338
(g6
Ntp7339
(g8
Ntp7340
(g10
Ntp7341
g10
tp7342
g10
tp7343
F2.0260433392841817
saI917
aa(lp7344
(dp7345
(((g3
g41
tp7346
(g6
Ntp7347
(g8
g10
tp7348
(g10
Ntp7349
g8
tp7350
Ntp7351
F1.0
saI918
aa(lp7352
(dp7353
(((g3
g41
tp7354
(g6
Ntp7355
(g8
g10
tp7356
(g10
Ntp7357
g8
tp7358
Ntp7359
F1.0
saI919
aa(lp7360
(dp7361
(((g3
g4
tp7362
(g6
Ntp7363
(g8
Ntp7364
(g10
Ntp7365
g8
tp7366
g8
tp7367
F2.0019486539338684
saI920
aa(lp7368
(dp7369
(((g3
g4
tp7370
(g6
Ntp7371
(g8
Ntp7372
(g10
Ntp7373
g10
tp7374
Ntp7375
F1.0
saI921
aa(lp7376
(dp7377
(((g3
g41
tp7378
(g6
Ntp7379
(g8
Ntp7380
(g10
Ntp7381
g10
tp7382
g10
tp7383
F2.0221368383915546
saI922
aa(lp7384
(dp7385
(((g3
g41
tp7386
(g6
Ntp7387
(g8
Ntp7388
(g10
Ntp7389
g10
tp7390
g10
tp7391
F2.0188163126328216
saI923
aa(lp7392
(dp7393
(((g3
g41
tp7394
(g6
Ntp7395
(g8
Ntp7396
(g10
Ntp7397
g21
tp7398
g21
tp7399
F3.265341642661637
saI924
aa(lp7400
(dp7401
(((g3
g4
tp7402
(g6
Ntp7403
(g8
Ntp7404
(g10
Ntp7405
g21
tp7406
Ntp7407
F1.0
saI925
aa(lp7408
(dp7409
(((g3
g4
tp7410
(g6
Ntp7411
(g8
Ntp7412
(g10
Ntp7413
g21
tp7414
Ntp7415
F1.0
saI926
aa(lp7416
(dp7417
(((g3
g4
tp7418
(g6
Ntp7419
(g8
Ntp7420
(g10
Ntp7421
g21
tp7422
Ntp7423
F1.0
saI927
aa(lp7424
(dp7425
(((g3
g41
tp7426
(g6
Ntp7427
(g8
Ntp7428
(g10
Ntp7429
g21
tp7430
g21
tp7431
F4.575540396262392
saI928
aa(lp7432
(dp7433
(((g3
g41
tp7434
(g6
Ntp7435
(g8
Ntp7436
(g10
Ntp7437
g10
tp7438
g10
tp7439
F2.015993865737898
saI929
aa(lp7440
(dp7441
(((g3
g4
tp7442
(g6
Ntp7443
(g8
Ntp7444
(g10
Ntp7445
g8
tp7446
Ntp7447
F1.0
saI930
aa(lp7448
(dp7449
(((g3
g4
tp7450
(g6
Ntp7451
(g8
Ntp7452
(g10
Ntp7453
g8
tp7454
g8
tp7455
F2.0016563558437883
saI931
aa(lp7456
(dp7457
(((g3
g4
tp7458
(g6
Ntp7459
(g8
Ntp7460
(g10
Ntp7461
g10
tp7462
Ntp7463
F1.0
saI932
aa(lp7464
(dp7465
(((g3
g41
tp7466
(g6
Ntp7467
(g8
Ntp7468
(g10
Ntp7469
g10
tp7470
g10
tp7471
F2.0135947858772134
saI933
aa(lp7472
(dp7473
(((g3
g41
tp7474
(g6
Ntp7475
(g8
Ntp7476
(g10
Ntp7477
g8
tp7478
g8
tp7479
F2.8901685532524573
saI934
aa(lp7480
(dp7481
(((g3
g41
tp7482
(g6
Ntp7483
(g8
Ntp7484
(g10
Ntp7485
g10
tp7486
g10
tp7487
F2.0115555679956314
saI935
aa(lp7488
(dp7489
(((g3
g41
tp7490
(g6
Ntp7491
(g8
Ntp7492
(g10
Ntp7493
g21
tp7494
g21
tp7495
F4.189209336823033
saI936
aa(lp7496
(dp7497
(((g3
g41
tp7498
(g6
Ntp7499
(g8
Ntp7500
(g10
Ntp7501
g21
tp7502
g21
tp7503
F3.8608279362995783
saI937
aa(lp7504
(dp7505
(((g3
g4
tp7506
(g6
g10
tp7507
(g8
Ntp7508
(g10
Ntp7509
g21
tp7510
Ntp7511
I1
saI938
aa(lp7512
(dp7513
(((g3
g41
tp7514
(g6
g10
tp7515
(g8
Ntp7516
(g10
Ntp7517
g21
tp7518
g21
tp7519
F3.5
saI939
aa(lp7520
(dp7521
(((g3
g41
tp7522
(g6
Ntp7523
(g8
Ntp7524
(g10
Ntp7525
g8
tp7526
g8
tp7527
F2.756643270264589
saI940
aa(lp7528
(dp7529
(((g3
g4
tp7530
(g6
Ntp7531
(g8
Ntp7532
(g10
Ntp7533
g8
tp7534
g8
tp7535
F2.00140790246722
saI941
aa(lp7536
(dp7537
(((g3
g4
tp7538
(g6
Ntp7539
(g8
Ntp7540
(g10
Ntp7541
g10
tp7542
Ntp7543
F1.0
saI942
aa(lp7544
(dp7545
(((g3
g41
tp7546
(g6
Ntp7547
(g8
Ntp7548
(g10
Ntp7549
g10
tp7550
g10
tp7551
F2.009822232796287
saI943
aa(lp7552
(dp7553
(((g3
g4
tp7554
(g6
Ntp7555
(g8
Ntp7556
(g10
Ntp7557
g21
tp7558
Ntp7559
F1.0
saI944
aa(lp7560
(dp7561
(((g3
g41
tp7562
(g6
Ntp7563
(g8
Ntp7564
(g10
Ntp7565
g21
tp7566
g21
tp7567
F3.5817037458546417
saI945
aa(lp7568
(dp7569
(((g3
g41
tp7570
(g6
Ntp7571
(g8
Ntp7572
(g10
Ntp7573
g8
tp7574
g8
tp7575
F4.1431467797249
saI946
aa(lp7576
(dp7577
(((g3
g4
tp7578
(g6
Ntp7579
(g8
Ntp7580
(g10
Ntp7581
g21
tp7582
Ntp7583
F1.0
saI947
aa(lp7584
(dp7585
(((g3
g4
tp7586
(g6
Ntp7587
(g8
Ntp7588
(g10
Ntp7589
g21
tp7590
Ntp7591
F1.0
saI948
aa(lp7592
(dp7593
(((g3
g4
tp7594
(g6
Ntp7595
(g8
Ntp7596
(g10
Ntp7597
g21
tp7598
Ntp7599
F1.0
saI949
aa(lp7600
(dp7601
(((g3
g4
tp7602
(g6
Ntp7603
(g8
Ntp7604
(g10
Ntp7605
g21
tp7606
Ntp7607
F1.0
saI950
aa(lp7608
(dp7609
(((g3
g41
tp7610
(g6
Ntp7611
(g8
Ntp7612
(g10
Ntp7613
g21
tp7614
g21
tp7615
F3.3444481839764455
saI951
aa(lp7616
(dp7617
(((g3
g41
tp7618
(g6
Ntp7619
(g8
Ntp7620
(g10
Ntp7621
g21
tp7622
g21
tp7623
F3.142780956379979
saI952
aa(lp7624
(dp7625
(((g3
g41
tp7626
(g6
Ntp7627
(g8
Ntp7628
(g10
Ntp7629
g21
tp7630
g21
tp7631
F2.971363812922982
saI953
aa(lp7632
(dp7633
(((g3
g4
tp7634
(g6
Ntp7635
(g8
Ntp7636
(g10
Ntp7637
g21
tp7638
Ntp7639
F1.0
saI954
aa(lp7640
(dp7641
(((g3
g4
tp7642
(g6
Ntp7643
(g8
Ntp7644
(g10
Ntp7645
g21
tp7646
Ntp7647
F1.0
saI955
aa(lp7648
(dp7649
(((g3
g4
tp7650
(g6
Ntp7651
(g8
Ntp7652
(g10
Ntp7653
g21
tp7654
Ntp7655
F1.0
saI956
aa(lp7656
(dp7657
(((g3
g41
tp7658
(g6
Ntp7659
(g8
Ntp7660
(g10
Ntp7661
g21
tp7662
g21
tp7663
F2.825659240984535
saI957
aa(lp7664
(dp7665
(((g3
g4
tp7666
(g6
Ntp7667
(g8
Ntp7668
(g10
Ntp7669
g21
tp7670
Ntp7671
F1.0
saI958
aa(lp7672
(dp7673
(((g3
g4
tp7674
(g6
Ntp7675
(g8
Ntp7676
(g10
Ntp7677
g21
tp7678
Ntp7679
F1.0
saI959
aa(lp7680
(dp7681
(((g3
g4
tp7682
(g6
Ntp7683
(g8
Ntp7684
(g10
Ntp7685
g21
tp7686
Ntp7687
F1.0
saI960
aa(lp7688
(dp7689
(((g3
g4
tp7690
(g6
Ntp7691
(g8
Ntp7692
(g10
Ntp7693
g21
tp7694
Ntp7695
F1.0
saI961
aa(lp7696
(dp7697
(((g3
g41
tp7698
(g6
Ntp7699
(g8
Ntp7700
(g10
Ntp7701
g21
tp7702
g21
tp7703
F4.201810354836855
saI962
aa(lp7704
(dp7705
(((g3
g41
tp7706
(g6
Ntp7707
(g8
Ntp7708
(g10
Ntp7709
g8
tp7710
g8
tp7711
F3.8216747627661656
saI963
aa(lp7712
(dp7713
(((g3
g41
tp7714
(g6
Ntp7715
(g8
Ntp7716
(g10
Ntp7717
g8
tp7718
g8
tp7719
F3.5484235483512405
saI964
aa(lp7720
(dp7721
(((g3
g41
tp7722
(g6
Ntp7723
(g8
Ntp7724
(g10
Ntp7725
g10
tp7726
g10
tp7727
F2.008348897876844
saI965
aa(lp7728
(dp7729
(((g3
g41
tp7730
(g6
Ntp7731
(g8
Ntp7732
(g10
Ntp7733
g10
tp7734
g10
tp7735
F3.5070965631953173
saI966
aa(lp7736
(dp7737
(((g3
g4
tp7738
(g6
Ntp7739
(g8
Ntp7740
(g10
Ntp7741
g10
tp7742
Ntp7743
F1.0
saI967
aa(lp7744
(dp7745
(((g3
g4
tp7746
(g6
Ntp7747
(g8
Ntp7748
(g10
Ntp7749
g10
tp7750
Ntp7751
F1.0
saI968
aa(lp7752
(dp7753
(((g3
g4
tp7754
(g6
Ntp7755
(g8
Ntp7756
(g10
Ntp7757
g10
tp7758
Ntp7759
F1.0
saI969
aa(lp7760
(dp7761
(((g3
g4
tp7762
(g6
Ntp7763
(g8
Ntp7764
(g10
Ntp7765
g10
tp7766
Ntp7767
F1.0
saI970
aa(lp7768
(dp7769
(((g3
g41
tp7770
(g6
Ntp7771
(g8
Ntp7772
(g10
Ntp7773
g10
tp7774
g10
tp7775
F3.2810320787160197
saI971
aa(lp7776
(dp7777
(((g3
g4
tp7778
(g6
Ntp7779
(g8
Ntp7780
(g10
Ntp7781
g8
tp7782
g21
tp7783
F-1.0
saI972
aa(lp7784
(dp7785
(((g3
g4
tp7786
(g6
Ntp7787
(g8
Ntp7788
(g10
Ntp7789
g8
tp7790
g8
tp7791
F2.001196717097137
saI973
aa(lp7792
(dp7793
(((g3
g4
tp7794
(g6
Ntp7795
(g8
Ntp7796
(g10
Ntp7797
g10
tp7798
Ntp7799
F1.0
saI974
aa(lp7800
(dp7801
(((g3
g41
tp7802
(g6
Ntp7803
(g8
Ntp7804
(g10
Ntp7805
g10
tp7806
g10
tp7807
F3.0888772669086166
saI975
aa(lp7808
(dp7809
(((g3
g4
tp7810
(g6
Ntp7811
(g8
Ntp7812
(g10
Ntp7813
g8
tp7814
g8
tp7815
F2.0010172095325665
saI976
aa(lp7816
(dp7817
(((g3
g41
tp7818
(g6
Ntp7819
(g8
Ntp7820
(g10
Ntp7821
g10
tp7822
g10
tp7823
F2.925545676872324
saI977
aa(lp7824
(dp7825
(((g3
g4
tp7826
(g6
Ntp7827
(g8
Ntp7828
(g10
Ntp7829
g8
tp7830
g8
tp7831
F2.0008646281026814
saI978
aa(lp7832
(dp7833
(((g3
g41
tp7834
(g6
Ntp7835
(g8
Ntp7836
(g10
Ntp7837
g10
tp7838
g10
tp7839
F2.7867138253414754
saI979
aa(lp7840
(dp7841
(((g3
g41
tp7842
(g6
Ntp7843
(g8
Ntp7844
(g10
Ntp7845
g21
tp7846
g21
tp7847
F3.871538801611327
saI980
aa(lp7848
(dp7849
(((g3
g41
tp7850
(g6
Ntp7851
(g8
Ntp7852
(g10
Ntp7853
g21
tp7854
g21
tp7855
F5.090807981369628
saI981
aa(lp7856
(dp7857
(((g3
g4
tp7858
(g6
Ntp7859
(g8
Ntp7860
(g10
Ntp7861
g21
tp7862
Ntp7863
F1.0
saI982
aa(lp7864
(dp7865
(((g3
g4
tp7866
(g6
Ntp7867
(g8
Ntp7868
(g10
Ntp7869
g21
tp7870
Ntp7871
F1.0
saI983
aa(lp7872
(dp7873
(((g3
g4
tp7874
(g6
Ntp7875
(g8
Ntp7876
(g10
Ntp7877
g21
tp7878
Ntp7879
F1.0
saI984
aa(lp7880
(dp7881
(((g3
g4
tp7882
(g6
Ntp7883
(g8
Ntp7884
(g10
Ntp7885
g21
tp7886
Ntp7887
F1.0
saI985
aa(lp7888
(dp7889
(((g3
g41
tp7890
(g6
Ntp7891
(g8
Ntp7892
(g10
Ntp7893
g21
tp7894
g21
tp7895
F4.627186784164184
saI986
aa(lp7896
(dp7897
(((g3
g4
tp7898
(g6
Ntp7899
(g8
Ntp7900
(g10
Ntp7901
g21
tp7902
Ntp7903
F1.0
saI987
aa(lp7904
(dp7905
(((g3
g41
tp7906
(g6
Ntp7907
(g8
Ntp7908
(g10
Ntp7909
g21
tp7910
g21
tp7911
F4.233108766539557
saI988
aa(lp7912
(dp7913
(((g3
g41
tp7914
(g6
Ntp7915
(g8
Ntp7916
(g10
Ntp7917
g21
tp7918
g21
tp7919
F3.8981424515586234
saI989
aa(lp7920
(dp7921
(((g3
g41
tp7922
(g6
Ntp7923
(g8
Ntp7924
(g10
Ntp7925
g21
tp7926
Ntp7927
F1.0
saI990
aa(lp7928
(dp7929
(((g3
g4
tp7930
(g6
Ntp7931
(g8
Ntp7932
(g10
Ntp7933
g21
tp7934
Ntp7935
F1.0
saI991
aa(lp7936
(dp7937
(((g3
g4
tp7938
(g6
Ntp7939
(g8
Ntp7940
(g10
Ntp7941
g21
tp7942
g8
tp7943
F0.5
saI992
aa(lp7944
(dp7945
(((g3
g4
tp7946
(g6
Ntp7947
(g8
Ntp7948
(g10
Ntp7949
g8
tp7950
g8
tp7951
F2.000734933887279
saI993
aa(lp7952
(dp7953
(((g3
g41
tp7954
(g6
Ntp7955
(g8
Ntp7956
(g10
Ntp7957
g8
tp7958
g8
tp7959
F3.3161600160985545
saI994
aa(lp7960
(dp7961
(((g3
g41
tp7962
(g6
Ntp7963
(g8
Ntp7964
(g10
Ntp7965
g10
tp7966
g10
tp7967
F2.6687067515402543
saI995
aa(lp7968
(dp7969
(((g3
g41
tp7970
(g6
Ntp7971
(g8
Ntp7972
(g10
Ntp7973
g8
tp7974
g8
tp7975
F3.118736013683771
saI996
aa(lp7976
(dp7977
(((g3
g4
tp7978
(g6
Ntp7979
(g8
Ntp7980
(g10
Ntp7981
g10
tp7982
Ntp7983
F1.0
saI997
aa(lp7984
(dp7985
(((g3
g41
tp7986
(g6
Ntp7987
(g8
Ntp7988
(g10
Ntp7989
g10
tp7990
g10
tp7991
F2.568400738809216
saI998
aa(lp7992
(dp7993
(((g3
g41
tp7994
(g6
Ntp7995
(g8
Ntp7996
(g10
Ntp7997
g8
tp7998
g8
tp7999
F2.9509256116312055
saI999
aa(lp8000
(dp8001
(((g3
g41
tp8002
(g6
Ntp8003
(g8
Ntp8004
(g10
Ntp8005
g10
tp8006
g10
tp8007
F2.483140627987834
saI1000
aa(lp8008
(dp8009
(((g3
g41
tp8010
(g6
Ntp8011
(g8
Ntp8012
(g10
Ntp8013
g21
tp8014
g21
tp8015
F3.61342108382483
saI1001
aa(lp8016
(dp8017
(((g3
g41
tp8018
(g6
Ntp8019
(g8
Ntp8020
(g10
Ntp8021
g21
tp8022
g21
tp8023
F3.3714079212511057
saI1002
aa(lp8024
(dp8025
(((g3
g41
tp8026
(g6
Ntp8027
(g8
Ntp8028
(g10
Ntp8029
g8
tp8030
g8
tp8031
F2.8082867698865246
saI1003
aa(lp8032
(dp8033
(((g3
g41
tp8034
(g6
Ntp8035
(g8
Ntp8036
(g10
Ntp8037
g21
tp8038
g21
tp8039
F4.66569673306344
saI1004
aa(lp8040
(dp8041
(((g3
g4
tp8042
(g6
Ntp8043
(g8
Ntp8044
(g10
Ntp8045
g10
tp8046
Ntp8047
F1.0
saI1005
aa(lp8048
(dp8049
(((g3
g4
tp8050
(g6
Ntp8051
(g8
Ntp8052
(g10
Ntp8053
g10
tp8054
Ntp8055
F1.0
saI1006
aa(lp8056
(dp8057
(((g3
g4
tp8058
(g6
Ntp8059
(g8
Ntp8060
(g10
Ntp8061
g10
tp8062
Ntp8063
F1.0
saI1007
aa(lp8064
(dp8065
(((g3
g4
tp8066
(g6
Ntp8067
(g8
Ntp8068
(g10
Ntp8069
g10
tp8070
Ntp8071
F1.0
saI1008
aa(lp8072
(dp8073
(((g3
g4
tp8074
(g6
Ntp8075
(g8
Ntp8076
(g10
Ntp8077
g10
tp8078
Ntp8079
F1.0
saI1009
aa(lp8080
(dp8081
(((g3
g41
tp8082
(g6
Ntp8083
(g8
Ntp8084
(g10
Ntp8085
g10
tp8086
g8
tp8087
F1.7090549356574631
saI1010
aa(lp8088
(dp8089
(((g3
g4
tp8090
(g6
Ntp8091
(g8
Ntp8092
(g10
Ntp8093
g21
tp8094
Ntp8095
F1.0
saI1011
aa(lp8096
(dp8097
(((g3
g4
tp8098
(g6
Ntp8099
(g8
Ntp8100
(g10
Ntp8101
g21
tp8102
Ntp8103
F1.0
saI1012
aa(lp8104
(dp8105
(((g3
g4
tp8106
(g6
Ntp8107
(g8
Ntp8108
(g10
Ntp8109
g21
tp8110
Ntp8111
F1.0
saI1013
aa(lp8112
(dp8113
(((g3
g41
tp8114
(g6
Ntp8115
(g8
Ntp8116
(g10
Ntp8117
g21
tp8118
g21
tp8119
F4.265842223103924
saI1014
aa(lp8120
(dp8121
(((g3
g41
tp8122
(g6
Ntp8123
(g8
Ntp8124
(g10
Ntp8125
g21
tp8126
g21
tp8127
F3.925965889638335
saI1015
aa(lp8128
(dp8129
(((g3
g41
tp8130
(g6
Ntp8131
(g8
Ntp8132
(g10
Ntp8133
g10
tp8134
g10
tp8135
F2.4106695337896586
saI1016
aa(lp8136
(dp8137
(((g3
g41
tp8138
(g6
Ntp8139
(g8
Ntp8140
(g10
Ntp8141
g21
tp8142
g21
tp8143
F5.137071006192585
saI1017
aa(lp8144
(dp8145
(((g3
g41
tp8146
(g6
Ntp8147
(g8
Ntp8148
(g10
Ntp8149
g8
tp8150
g8
tp8151
F2.687043754403546
saI1018
aa(lp8152
(dp8153
(((g3
g41
tp8154
(g6
Ntp8155
(g8
Ntp8156
(g10
Ntp8157
g10
tp8158
g10
tp8159
F2.34906910372121
saI1019
aa(lp8160
(dp8161
(((g3
g4
tp8162
(g6
Ntp8163
(g8
Ntp8164
(g10
Ntp8165
g8
tp8166
g8
tp8167
F2.000624693804187
saI1020
aa(lp8168
(dp8169
(((g3
g41
tp8170
(g6
Ntp8171
(g8
Ntp8172
(g10
Ntp8173
g10
tp8174
g10
tp8175
F2.2967087381630282
saI1021
aa(lp8176
(dp8177
(((g3
g41
tp8178
(g6
Ntp8179
(g8
Ntp8180
(g10
Ntp8181
g21
tp8182
g21
tp8183
F4.666510355263697
saI1022
aa(lp8184
(dp8185
(((g3
g4
tp8186
(g6
Ntp8187
(g8
g8
tp8188
(g10
Ntp8189
g21
tp8190
g10
tp8191
F-1.0
saI1023
aa(lp8192
(dp8193
(((g3
g4
tp8194
(g6
Ntp8195
(g8
Ntp8196
(g10
Ntp8197
g21
tp8198
Ntp8199
F1.0
saI1024
aa(lp8200
(dp8201
(((g3
g4
tp8202
(g6
Ntp8203
(g8
Ntp8204
(g10
Ntp8205
g21
tp8206
Ntp8207
F1.0
saI1025
aa(lp8208
(dp8209
(((g3
g41
tp8210
(g6
Ntp8211
(g8
Ntp8212
(g10
Ntp8213
g21
tp8214
g21
tp8215
F4.266533801974143
saI1026
aa(lp8216
(dp8217
(((g3
g41
tp8218
(g6
Ntp8219
(g8
Ntp8220
(g10
Ntp8221
g21
tp8222
g21
tp8223
F3.9265537316780215
saI1027
aa(lp8224
(dp8225
(((g3
g41
tp8226
(g6
Ntp8227
(g8
Ntp8228
(g10
Ntp8229
g10
tp8230
g10
tp8231
F3.752202427438574
saI1028
aa(lp8232
(dp8233
(((g3
g4
tp8234
(g6
Ntp8235
(g8
Ntp8236
(g10
Ntp8237
g8
tp8238
g8
tp8239
F2.000530989733559
saI1029
aa(lp8240
(dp8241
(((g3
g4
tp8242
(g6
Ntp8243
(g8
Ntp8244
(g10
Ntp8245
g10
tp8246
Ntp8247
F1.0
saI1030
aa(lp8248
(dp8249
(((g3
g4
tp8250
(g6
Ntp8251
(g8
Ntp8252
(g10
Ntp8253
g10
tp8254
Ntp8255
F1.0
saI1031
aa(lp8256
(dp8257
(((g3
g4
tp8258
(g6
Ntp8259
(g8
Ntp8260
(g10
Ntp8261
g10
tp8262
Ntp8263
F1.0
saI1032
aa(lp8264
(dp8265
(((g3
g41
tp8266
(g6
Ntp8267
(g8
Ntp8268
(g10
Ntp8269
g10
tp8270
g10
tp8271
F3.489372063322788
saI1033
aa(lp8272
(dp8273
(((g3
g4
tp8274
(g6
Ntp8275
(g8
Ntp8276
(g10
Ntp8277
g8
tp8278
g8
tp8279
F2.000451341273525
saI1034
aa(lp8280
(dp8281
(((g3
g4
tp8282
(g6
Ntp8283
(g8
Ntp8284
(g10
Ntp8285
g10
tp8286
g8
tp8287
F0.5
saI1035
aa(lp8288
(dp8289
(((g3
g41
tp8290
(g6
Ntp8291
(g8
Ntp8292
(g10
Ntp8293
g21
tp8294
g21
tp8295
F3.6375706719263183
saI1036
aa(lp8296
(dp8297
(((g3
g4
tp8298
(g6
Ntp8299
(g8
Ntp8300
(g10
Ntp8301
g21
tp8302
Ntp8303
F1.0
saI1037
aa(lp8304
(dp8305
(((g3
g4
tp8306
(g6
Ntp8307
(g8
Ntp8308
(g10
Ntp8309
g21
tp8310
Ntp8311
F1.0
saI1038
aa(lp8312
(dp8313
(((g3
g41
tp8314
(g6
Ntp8315
(g8
Ntp8316
(g10
Ntp8317
g21
tp8318
g21
tp8319
F3.391935071137371
saI1039
aa(lp8320
(dp8321
(((g3
g4
tp8322
(g6
Ntp8323
(g8
Ntp8324
(g10
Ntp8325
g21
tp8326
Ntp8327
F1.0
saI1040
aa(lp8328
(dp8329
(((g3
g4
tp8330
(g6
Ntp8331
(g8
Ntp8332
(g10
Ntp8333
g21
tp8334
Ntp8335
F1.0
saI1041
aa(lp8336
(dp8337
(((g3
g4
tp8338
(g6
Ntp8339
(g8
Ntp8340
(g10
Ntp8341
g21
tp8342
Ntp8343
F1.0
saI1042
aa(lp8344
(dp8345
(((g3
g4
tp8346
(g6
Ntp8347
(g8
Ntp8348
(g10
Ntp8349
g21
tp8350
Ntp8351
F1.0
saI1043
aa(lp8352
(dp8353
(((g3
g41
tp8354
(g6
Ntp8355
(g8
Ntp8356
(g10
Ntp8357
g21
tp8358
g21
tp8359
F3.1831448104667652
saI1044
aa(lp8360
(dp8361
(((g3
g41
tp8362
(g6
Ntp8363
(g8
Ntp8364
(g10
Ntp8365
g10
tp8366
g10
tp8367
F3.2659662538243697
saI1045
aa(lp8368
(dp8369
(((g3
g4
tp8370
(g6
Ntp8371
(g8
Ntp8372
(g10
Ntp8373
g21
tp8374
Ntp8375
F1.0
saI1046
aa(lp8376
(dp8377
(((g3
g4
tp8378
(g6
Ntp8379
(g8
Ntp8380
(g10
Ntp8381
g21
tp8382
Ntp8383
F1.0
saI1047
aa(lp8384
(dp8385
(((g3
g4
tp8386
(g6
Ntp8387
(g8
Ntp8388
(g10
Ntp8389
g21
tp8390
Ntp8391
F1.0
saI1048
aa(lp8392
(dp8393
(((g3
g41
tp8394
(g6
Ntp8395
(g8
Ntp8396
(g10
Ntp8397
g21
tp8398
g21
tp8399
F3.0056730888967502
saI1049
aa(lp8400
(dp8401
(((g3
g41
tp8402
(g6
Ntp8403
(g8
Ntp8404
(g10
Ntp8405
g8
tp8406
g8
tp8407
F2.583987191243014
saI1050
aa(lp8408
(dp8409
(((g3
g41
tp8410
(g6
Ntp8411
(g8
Ntp8412
(g10
Ntp8413
g8
tp8414
g8
tp8415
F2.496389112556562
saI1051
aa(lp8416
(dp8417
(((g3
g4
tp8418
(g6
Ntp8419
(g8
g21
tp8420
(g10
Ntp8421
g10
tp8422
g21
tp8423
I-1
saI1052
aa(lp8424
(dp8425
(((g3
g4
tp8426
(g6
Ntp8427
(g8
Ntp8428
(g10
Ntp8429
g10
tp8430
Ntp8431
F1.0
saI1053
aa(lp8432
(dp8433
(((g3
g4
tp8434
(g6
Ntp8435
(g8
Ntp8436
(g10
Ntp8437
g10
tp8438
Ntp8439
F1.0
saI1054
aa(lp8440
(dp8441
(((g3
g41
tp8442
(g6
Ntp8443
(g8
Ntp8444
(g10
Ntp8445
g10
tp8446
g10
tp8447
F3.0760713157507142
saI1055
aa(lp8448
(dp8449
(((g3
g41
tp8450
(g6
Ntp8451
(g8
Ntp8452
(g10
Ntp8453
g8
tp8454
g8
tp8455
F2.4219307456730776
saI1056
aa(lp8456
(dp8457
(((g3
g41
tp8458
(g6
Ntp8459
(g8
Ntp8460
(g10
Ntp8461
g10
tp8462
g10
tp8463
F2.914660618388107
saI1057
aa(lp8464
(dp8465
(((g3
g41
tp8466
(g6
Ntp8467
(g8
Ntp8468
(g10
Ntp8469
g8
tp8470
g8
tp8471
F2.358641133822116
saI1058
aa(lp8472
(dp8473
(((g3
g41
tp8474
(g6
Ntp8475
(g8
g10
tp8476
(g10
Ntp8477
g10
tp8478
g10
tp8479
F2.0
saI1059
aa(lp8480
(dp8481
(((g3
g4
tp8482
(g6
Ntp8483
(g8
Ntp8484
(g10
Ntp8485
g8
tp8486
g8
tp8487
F2.000383640082496
saI1060
aa(lp8488
(dp8489
(((g3
g41
tp8490
(g6
Ntp8491
(g8
Ntp8492
(g10
Ntp8493
g10
tp8494
g10
tp8495
F2.777461525629891
saI1061
aa(lp8496
(dp8497
(((g3
g4
tp8498
(g6
Ntp8499
(g8
Ntp8500
(g10
Ntp8501
g8
tp8502
g8
tp8503
F2.0003260940701217
saI1062
aa(lp8504
(dp8505
(((g3
g41
tp8506
(g6
Ntp8507
(g8
Ntp8508
(g10
Ntp8509
g10
tp8510
g10
tp8511
F2.660842296785407
saI1063
aa(lp8512
(dp8513
(((g3
g41
tp8514
(g6
Ntp8515
(g8
Ntp8516
(g10
Ntp8517
g10
tp8518
g10
tp8519
F4.061715952267596
saI1064
aa(lp8520
(dp8521
(((g3
g41
tp8522
(g6
Ntp8523
(g8
Ntp8524
(g10
Ntp8525
g21
tp8526
g21
tp8527
F2.8548221255622375
saI1065
aa(lp8528
(dp8529
(((g3
g41
tp8530
(g6
Ntp8531
(g8
Ntp8532
(g10
Ntp8533
g21
tp8534
g21
tp8535
F2.726598806727902
saI1066
aa(lp8536
(dp8537
(((g3
g4
tp8538
(g6
Ntp8539
(g8
Ntp8540
(g10
Ntp8541
g10
tp8542
Ntp8543
F1.0
saI1067
aa(lp8544
(dp8545
(((g3
g4
tp8546
(g6
Ntp8547
(g8
Ntp8548
(g10
Ntp8549
g10
tp8550
Ntp8551
F1.0
saI1068
aa(lp8552
(dp8553
(((g3
g4
tp8554
(g6
Ntp8555
(g8
Ntp8556
(g10
Ntp8557
g10
tp8558
Ntp8559
F1.0
saI1069
aa(lp8560
(dp8561
(((g3
g41
tp8562
(g6
Ntp8563
(g8
Ntp8564
(g10
Ntp8565
g10
tp8566
g10
tp8567
F3.7524585594274567
saI1070
aa(lp8568
(dp8569
(((g3
g4
tp8570
(g6
Ntp8571
(g8
Ntp8572
(g10
Ntp8573
g21
tp8574
Ntp8575
F1.0
saI1071
aa(lp8576
(dp8577
(((g3
g4
tp8578
(g6
Ntp8579
(g8
Ntp8580
(g10
Ntp8581
g21
tp8582
Ntp8583
F1.0
saI1072
aa(lp8584
(dp8585
(((g3
g4
tp8586
(g6
Ntp8587
(g8
Ntp8588
(g10
Ntp8589
g21
tp8590
Ntp8591
F1.0
saI1073
aa(lp8592
(dp8593
(((g3
g4
tp8594
(g6
Ntp8595
(g8
Ntp8596
(g10
Ntp8597
g21
tp8598
Ntp8599
F1.0
saI1074
aa(lp8600
(dp8601
(((g3
g41
tp8602
(g6
Ntp8603
(g8
Ntp8604
(g10
Ntp8605
g21
tp8606
g10
tp8607
F0.5
saI1075
aa(lp8608
(dp8609
(((g3
g4
tp8610
(g6
Ntp8611
(g8
Ntp8612
(g10
Ntp8613
g8
tp8614
g8
tp8615
F2.0002771799596033
saI1076
aa(lp8616
(dp8617
(((g3
g4
tp8618
(g6
Ntp8619
(g8
Ntp8620
(g10
Ntp8621
g10
tp8622
Ntp8623
F1.0
saI1077
aa(lp8624
(dp8625
(((g3
g4
tp8626
(g6
Ntp8627
(g8
Ntp8628
(g10
Ntp8629
g10
tp8630
Ntp8631
F1.0
saI1078
aa(lp8632
(dp8633
(((g3
g4
tp8634
(g6
Ntp8635
(g8
Ntp8636
(g10
g10
tp8637
g10
tp8638
g10
tp8639
F-1.0
saI1079
aa(lp8640
(dp8641
(((g3
g41
tp8642
(g6
Ntp8643
(g8
Ntp8644
(g10
g10
tp8645
g10
tp8646
g10
tp8647
F3.275
saI1080
aa(lp8648
(dp8649
(((g3
g4
tp8650
(g6
Ntp8651
(g8
Ntp8652
(g10
Ntp8653
g8
tp8654
g8
tp8655
F2.0002356029656627
saI1081
aa(lp8656
(dp8657
(((g3
g41
tp8658
(g6
Ntp8659
(g8
Ntp8660
(g10
Ntp8661
g10
tp8662
g10
tp8663
F3.489589775513338
saI1082
aa(lp8664
(dp8665
(((g3
g4
tp8666
(g6
Ntp8667
(g8
Ntp8668
(g10
Ntp8669
g8
tp8670
g8
tp8671
F2.0002002625208135
saI1083
aa(lp8672
(dp8673
(((g3
g4
tp8674
(g6
Ntp8675
(g8
Ntp8676
(g10
Ntp8677
g10
tp8678
Ntp8679
F1.0
saI1084
aa(lp8680
(dp8681
(((g3
g41
tp8682
(g6
Ntp8683
(g8
Ntp8684
(g10
Ntp8685
g10
tp8686
g10
tp8687
F3.2661513091863372
saI1085
aa(lp8688
(dp8689
(((g3
g41
tp8690
(g6
Ntp8691
(g8
Ntp8692
(g10
Ntp8693
g8
tp8694
g8
tp8695
F2.3048449637487987
saI1086
aa(lp8696
(dp8697
(((g3
g41
tp8698
(g6
Ntp8699
(g8
Ntp8700
(g10
Ntp8701
g10
tp8702
g10
tp8703
F3.0762286128083867
saI1087
aa(lp8704
(dp8705
(((g3
g4
tp8706
(g6
Ntp8707
(g8
Ntp8708
(g10
Ntp8709
g8
tp8710
g8
tp8711
F2.0001702231426917
saI1088
aa(lp8712
(dp8713
(((g3
g4
tp8714
(g6
Ntp8715
(g8
Ntp8716
(g10
Ntp8717
g10
tp8718
Ntp8719
F1.0
saI1089
aa(lp8720
(dp8721
(((g3
g4
tp8722
(g6
Ntp8723
(g8
Ntp8724
(g10
Ntp8725
g10
tp8726
Ntp8727
F1.0
saI1090
aa(lp8728
(dp8729
(((g3
g41
tp8730
(g6
Ntp8731
(g8
Ntp8732
(g10
Ntp8733
g21
tp8734
g21
tp8735
F2.6176089857187166
saI1091
aa(lp8736
(dp8737
(((g3
g4
tp8738
(g6
Ntp8739
(g8
Ntp8740
(g10
Ntp8741
g10
tp8742
Ntp8743
F1.0
saI1092
aa(lp8744
(dp8745
(((g3
g4
tp8746
(g6
Ntp8747
(g8
Ntp8748
(g10
Ntp8749
g10
tp8750
Ntp8751
F1.0
saI1093
aa(lp8752
(dp8753
(((g3
g41
tp8754
(g6
Ntp8755
(g8
Ntp8756
(g10
Ntp8757
g10
tp8758
g10
tp8759
F2.9147943208871285
saI1094
aa(lp8760
(dp8761
(((g3
g41
tp8762
(g6
Ntp8763
(g8
Ntp8764
(g10
Ntp8765
g21
tp8766
g21
tp8767
F2.524967637860909
saI1095
aa(lp8768
(dp8769
(((g3
g4
tp8770
(g6
Ntp8771
(g8
Ntp8772
(g10
Ntp8773
g21
tp8774
Ntp8775
F1.0
saI1096
aa(lp8776
(dp8777
(((g3
g4
tp8778
(g6
Ntp8779
(g8
Ntp8780
(g10
Ntp8781
g21
tp8782
Ntp8783
F1.0
saI1097
aa(lp8784
(dp8785
(((g3
g4
tp8786
(g6
Ntp8787
(g8
Ntp8788
(g10
Ntp8789
g21
tp8790
Ntp8791
F1.0
saI1098
aa(lp8792
(dp8793
(((g3
g4
tp8794
(g6
Ntp8795
(g8
Ntp8796
(g10
Ntp8797
g21
tp8798
Ntp8799
F1.0
saI1099
aa(lp8800
(dp8801
(((g3
g4
tp8802
(g6
Ntp8803
(g8
Ntp8804
(g10
Ntp8805
g21
tp8806
Ntp8807
F1.0
saI1100
aa(lp8808
(dp8809
(((g3
g41
tp8810
(g6
Ntp8811
(g8
Ntp8812
(g10
Ntp8813
g21
tp8814
g21
tp8815
F2.446222492181773
saI1101
aa(lp8816
(dp8817
(((g3
g41
tp8818
(g6
Ntp8819
(g8
Ntp8820
(g10
Ntp8821
g21
tp8822
g21
tp8823
F3.8792891183545066
saI1102
aa(lp8824
(dp8825
(((g3
g4
tp8826
(g6
Ntp8827
(g8
Ntp8828
(g10
Ntp8829
g21
tp8830
Ntp8831
F1.0
saI1103
aa(lp8832
(dp8833
(((g3
g4
tp8834
(g6
Ntp8835
(g8
Ntp8836
(g10
Ntp8837
g21
tp8838
Ntp8839
F1.0
saI1104
aa(lp8840
(dp8841
(((g3
g4
tp8842
(g6
Ntp8843
(g8
Ntp8844
(g10
Ntp8845
g21
tp8846
Ntp8847
F1.0
saI1105
aa(lp8848
(dp8849
(((g3
g4
tp8850
(g6
Ntp8851
(g8
Ntp8852
(g10
Ntp8853
g21
tp8854
Ntp8855
F1.0
saI1106
aa(lp8856
(dp8857
(((g3
g4
tp8858
(g6
Ntp8859
(g8
Ntp8860
(g10
Ntp8861
g21
tp8862
Ntp8863
F1.0
saI1107
aa(lp8864
(dp8865
(((g3
g41
tp8866
(g6
Ntp8867
(g8
Ntp8868
(g10
Ntp8869
g21
tp8870
g21
tp8871
F3.5973957506013305
saI1108
aa(lp8872
(dp8873
(((g3
g41
tp8874
(g6
Ntp8875
(g8
Ntp8876
(g10
Ntp8877
g21
tp8878
g21
tp8879
F3.357786388011131
saI1109
aa(lp8880
(dp8881
(((g3
g4
tp8882
(g6
Ntp8883
(g8
Ntp8884
(g10
Ntp8885
g8
tp8886
g8
tp8887
F2.000144689671288
saI1110
aa(lp8888
(dp8889
(((g3
g4
tp8890
(g6
Ntp8891
(g8
Ntp8892
(g10
Ntp8893
g21
tp8894
Ntp8895
F1.0
saI1111
aa(lp8896
(dp8897
(((g3
g41
tp8898
(g6
Ntp8899
(g8
Ntp8900
(g10
Ntp8901
g21
tp8902
g21
tp8903
F4.654118429809461
saI1112
aa(lp8904
(dp8905
(((g3
g4
tp8906
(g6
Ntp8907
(g8
Ntp8908
(g10
Ntp8909
g8
tp8910
g8
tp8911
F2.0001229862205947
saI1113
aa(lp8912
(dp8913
(((g3
g41
tp8914
(g6
Ntp8915
(g8
Ntp8916
(g10
Ntp8917
g8
tp8918
g8
tp8919
F3.7591182191864787
saI1114
aa(lp8920
(dp8921
(((g3
g4
tp8922
(g6
Ntp8923
(g8
Ntp8924
(g10
Ntp8925
g21
tp8926
Ntp8927
F1.0
saI1115
aa(lp8928
(dp8929
(((g3
g4
tp8930
(g6
Ntp8931
(g8
Ntp8932
(g10
Ntp8933
g21
tp8934
Ntp8935
F1.0
saI1116
aa(lp8936
(dp8937
(((g3
g4
tp8938
(g6
Ntp8939
(g8
Ntp8940
(g10
Ntp8941
g21
tp8942
Ntp8943
F1.0
saI1117
aa(lp8944
(dp8945
(((g3
g4
tp8946
(g6
Ntp8947
(g8
Ntp8948
(g10
Ntp8949
g21
tp8950
Ntp8951
F1.0
saI1118
aa(lp8952
(dp8953
(((g3
g41
tp8954
(g6
Ntp8955
(g8
Ntp8956
(g10
Ntp8957
g21
tp8958
Ntp8959
F1.0
saI1119
aa(lp8960
(dp8961
(((g3
g41
tp8962
(g6
Ntp8963
(g8
Ntp8964
(g10
Ntp8965
g21
tp8966
g21
tp8967
F4.256000665338042
saI1120
aa(lp8968
(dp8969
(((g3
g4
tp8970
(g6
Ntp8971
(g8
Ntp8972
(g10
Ntp8973
g21
tp8974
Ntp8975
F1.0
saI1121
aa(lp8976
(dp8977
(((g3
g4
tp8978
(g6
Ntp8979
(g8
Ntp8980
(g10
Ntp8981
g21
tp8982
Ntp8983
F1.0
saI1122
aa(lp8984
(dp8985
(((g3
g4
tp8986
(g6
Ntp8987
(g8
Ntp8988
(g10
Ntp8989
g21
tp8990
Ntp8991
F1.0
saI1123
aa(lp8992
(dp8993
(((g3
g41
tp8994
(g6
Ntp8995
(g8
Ntp8996
(g10
Ntp8997
g21
tp8998
g21
tp8999
F3.9176005655373354
saI1124
aa(lp9000
(dp9001
(((g3
g4
tp9002
(g6
Ntp9003
(g8
Ntp9004
(g10
Ntp9005
g21
tp9006
g21
tp9007
F-1.0
saI1125
aa(lp9008
(dp9009
(((g3
g4
tp9010
(g6
Ntp9011
(g8
Ntp9012
(g10
Ntp9013
g21
tp9014
Ntp9015
F1.0
saI1126
aa(lp9016
(dp9017
(((g3
g41
tp9018
(g6
Ntp9019
(g8
g21
tp9020
(g10
Ntp9021
g21
tp9022
g21
tp9023
F2.0
saI1127
aa(lp9024
(dp9025
(((g3
g41
tp9026
(g6
Ntp9027
(g8
Ntp9028
(g10
Ntp9029
g21
tp9030
g21
tp9031
F3.629960480706735
saI1128
aa(lp9032
(dp9033
(((g3
g41
tp9034
(g6
Ntp9035
(g8
Ntp9036
(g10
Ntp9037
g21
tp9038
g21
tp9039
F4.885466408600725
saI1129
aa(lp9040
(dp9041
(((g3
g41
tp9042
(g6
Ntp9043
(g8
Ntp9044
(g10
Ntp9045
g10
tp9046
g10
tp9047
F2.777575172754059
saI1130
aa(lp9048
(dp9049
(((g3
g41
tp9050
(g6
Ntp9051
(g8
Ntp9052
(g10
Ntp9053
g8
tp9054
g8
tp9055
F3.4952504863085068
saI1131
aa(lp9056
(dp9057
(((g3
g41
tp9058
(g6
Ntp9059
(g8
Ntp9060
(g10
Ntp9061
g10
tp9062
g21
tp9063
F0.5
saI1132
aa(lp9064
(dp9065
(((g3
g4
tp9066
(g6
Ntp9067
(g8
Ntp9068
(g10
Ntp9069
g10
tp9070
Ntp9071
F1.0
saI1133
aa(lp9072
(dp9073
(((g3
g4
tp9074
(g6
Ntp9075
(g8
Ntp9076
(g10
Ntp9077
g10
tp9078
g10
tp9079
F-1.0
saI1134
aa(lp9080
(dp9081
(((g3
g41
tp9082
(g6
Ntp9083
(g8
Ntp9084
(g10
Ntp9085
g10
tp9086
g10
tp9087
F2.66093889684095
saI1135
aa(lp9088
(dp9089
(((g3
g4
tp9090
(g6
Ntp9091
(g8
Ntp9092
(g10
Ntp9093
g8
tp9094
g8
tp9095
F2.0001045382875056
saI1136
aa(lp9096
(dp9097
(((g3
g41
tp9098
(g6
Ntp9099
(g8
Ntp9100
(g10
Ntp9101
g10
tp9102
g10
tp9103
F2.5617980623148076
saI1137
aa(lp9104
(dp9105
(((g3
g4
tp9106
(g6
Ntp9107
(g8
Ntp9108
(g10
Ntp9109
g8
tp9110
g8
tp9111
F2.00008885754438
saI1138
aa(lp9112
(dp9113
(((g3
g41
tp9114
(g6
Ntp9115
(g8
Ntp9116
(g10
Ntp9117
g10
tp9118
g10
tp9119
F2.4775283529675862
saI1139
aa(lp9120
(dp9121
(((g3
g4
tp9122
(g6
Ntp9123
(g8
Ntp9124
(g10
Ntp9125
g8
tp9126
g8
tp9127
F2.0000755289127228
saI1140
aa(lp9128
(dp9129
(((g3
g41
tp9130
(g6
Ntp9131
(g8
Ntp9132
(g10
Ntp9133
g10
tp9134
g21
tp9135
F0.5
saI1141
aa(lp9136
(dp9137
(((g3
g41
tp9138
(g6
Ntp9139
(g8
Ntp9140
(g10
Ntp9141
g10
tp9142
g10
tp9143
F2.4058991000224483
saI1142
aa(lp9144
(dp9145
(((g3
g4
tp9146
(g6
Ntp9147
(g8
Ntp9148
(g10
Ntp9149
g21
tp9150
Ntp9151
F1.0
saI1143
aa(lp9152
(dp9153
(((g3
g4
tp9154
(g6
Ntp9155
(g8
Ntp9156
(g10
Ntp9157
g21
tp9158
Ntp9159
F1.0
saI1144
aa(lp9160
(dp9161
(((g3
g41
tp9162
(g6
Ntp9163
(g8
Ntp9164
(g10
Ntp9165
g21
tp9166
g21
tp9167
F4.452646447310616
saI1145
aa(lp9168
(dp9169
(((g3
g41
tp9170
(g6
Ntp9171
(g8
Ntp9172
(g10
Ntp9173
g21
tp9174
g21
tp9175
F4.084749480214024
saI1146
aa(lp9176
(dp9177
(((g3
g4
tp9178
(g6
Ntp9179
(g8
Ntp9180
(g10
Ntp9181
g8
tp9182
g8
tp9183
F2.000064199575814
saI1147
aa(lp9184
(dp9185
(((g3
g41
tp9186
(g6
Ntp9187
(g8
Ntp9188
(g10
Ntp9189
g21
tp9190
g21
tp9191
F3.7720370581819203
saI1148
aa(lp9192
(dp9193
(((g3
g41
tp9194
(g6
Ntp9195
(g8
Ntp9196
(g10
Ntp9197
g21
tp9198
g21
tp9199
F5.006231499454632
saI1149
aa(lp9200
(dp9201
(((g3
g41
tp9202
(g6
Ntp9203
(g8
g8
tp9204
(g10
Ntp9205
g21
tp9206
Ntp9207
I1
saI1150
aa(lp9208
(dp9209
(((g3
g41
tp9210
(g6
Ntp9211
(g8
g8
tp9212
(g10
Ntp9213
g21
tp9214
Ntp9215
F1.0
saI1151
aa(lp9216
(dp9217
(((g3
g41
tp9218
(g6
Ntp9219
(g8
g8
tp9220
(g10
Ntp9221
g21
tp9222
Ntp9223
F1.0
saI1152
aa(lp9224
(dp9225
(((g3
g41
tp9226
(g6
Ntp9227
(g8
g8
tp9228
(g10
Ntp9229
g21
tp9230
Ntp9231
F1.0
saI1153
aa(lp9232
(dp9233
(((g3
g41
tp9234
(g6
Ntp9235
(g8
g8
tp9236
(g10
Ntp9237
g21
tp9238
Ntp9239
F1.0
saI1154
aa(lp9240
(dp9241
(((g3
g4
tp9242
(g6
Ntp9243
(g8
Ntp9244
(g10
Ntp9245
g21
tp9246
Ntp9247
F1.0
saI1155
aa(lp9248
(dp9249
(((g3
g4
tp9250
(g6
Ntp9251
(g8
Ntp9252
(g10
Ntp9253
g21
tp9254
Ntp9255
F1.0
saI1156
aa(lp9256
(dp9257
(((g3
g4
tp9258
(g6
Ntp9259
(g8
Ntp9260
(g10
Ntp9261
g21
tp9262
Ntp9263
F1.0
saI1157
aa(lp9264
(dp9265
(((g3
g4
tp9266
(g6
Ntp9267
(g8
Ntp9268
(g10
Ntp9269
g21
tp9270
Ntp9271
F1.0
saI1158
aa(lp9272
(dp9273
(((g3
g4
tp9274
(g6
Ntp9275
(g8
Ntp9276
(g10
Ntp9277
g21
tp9278
Ntp9279
F1.0
saI1159
aa(lp9280
(dp9281
(((g3
g41
tp9282
(g6
Ntp9283
(g8
Ntp9284
(g10
Ntp9285
g21
tp9286
g21
tp9287
F4.555296774536437
saI1160
aa(lp9288
(dp9289
(((g3
g4
tp9290
(g6
Ntp9291
(g8
Ntp9292
(g10
Ntp9293
g21
tp9294
Ntp9295
F1.0
saI1161
aa(lp9296
(dp9297
(((g3
g41
tp9298
(g6
Ntp9299
(g8
Ntp9300
(g10
Ntp9301
g21
tp9302
g21
tp9303
F4.172002258355971
saI1162
aa(lp9304
(dp9305
(((g3
g4
tp9306
(g6
Ntp9307
(g8
Ntp9308
(g10
Ntp9309
g10
tp9310
Ntp9311
F1.0
saI1163
aa(lp9312
(dp9313
(((g3
g4
tp9314
(g6
Ntp9315
(g8
Ntp9316
(g10
Ntp9317
g10
tp9318
Ntp9319
F1.0
saI1164
aa(lp9320
(dp9321
(((g3
g41
tp9322
(g6
Ntp9323
(g8
Ntp9324
(g10
Ntp9325
g10
tp9326
g10
tp9327
F2.345014235019081
saI1165
aa(lp9328
(dp9329
(((g3
g4
tp9330
(g6
Ntp9331
(g8
Ntp9332
(g10
Ntp9333
g21
tp9334
Ntp9335
F1.0
saI1166
aa(lp9336
(dp9337
(((g3
g4
tp9338
(g6
Ntp9339
(g8
Ntp9340
(g10
Ntp9341
g21
tp9342
Ntp9343
F1.0
saI1167
aa(lp9344
(dp9345
(((g3
g4
tp9346
(g6
Ntp9347
(g8
Ntp9348
(g10
Ntp9349
g21
tp9350
Ntp9351
F1.0
saI1168
aa(lp9352
(dp9353
(((g3
g4
tp9354
(g6
Ntp9355
(g8
Ntp9356
(g10
Ntp9357
g21
tp9358
Ntp9359
F1.0
saI1169
aa(lp9360
(dp9361
(((g3
g41
tp9362
(g6
Ntp9363
(g8
Ntp9364
(g10
Ntp9365
g21
tp9366
g21
tp9367
F3.8462019196025756
saI1170
aa(lp9368
(dp9369
(((g3
g41
tp9370
(g6
Ntp9371
(g8
Ntp9372
(g10
Ntp9373
g21
tp9374
g21
tp9375
F3.5692716316621893
saI1171
aa(lp9376
(dp9377
(((g3
g41
tp9378
(g6
Ntp9379
(g8
Ntp9380
(g10
Ntp9381
g21
tp9382
g21
tp9383
F3.333880886912861
saI1172
aa(lp9384
(dp9385
(((g3
g41
tp9386
(g6
Ntp9387
(g8
Ntp9388
(g10
Ntp9389
g21
tp9390
g21
tp9391
F4.633798753875932
saI1173
aa(lp9392
(dp9393
(((g3
g4
tp9394
(g6
Ntp9395
(g8
Ntp9396
(g10
Ntp9397
g8
tp9398
g8
tp9399
F2.000054569639442
saI1174
aa(lp9400
(dp9401
(((g3
g41
tp9402
(g6
Ntp9403
(g8
Ntp9404
(g10
Ntp9405
g10
tp9406
g10
tp9407
F2.2932620997662188
saI1175
aa(lp9408
(dp9409
(((g3
g4
tp9410
(g6
Ntp9411
(g8
Ntp9412
(g10
Ntp9413
g8
tp9414
g8
tp9415
F2.0000463841935257
saI1176
aa(lp9416
(dp9417
(((g3
g41
tp9418
(g6
Ntp9419
(g8
Ntp9420
(g10
Ntp9421
g10
tp9422
g10
tp9423
F2.249272784801286
saI1177
aa(lp9424
(dp9425
(((g3
g41
tp9426
(g6
Ntp9427
(g8
Ntp9428
(g10
Ntp9429
g8
tp9430
g8
tp9431
F3.2709629133622307
saI1178
aa(lp9432
(dp9433
(((g3
g4
tp9434
(g6
Ntp9435
(g8
Ntp9436
(g10
Ntp9437
g10
tp9438
Ntp9439
F1.0
saI1179
aa(lp9440
(dp9441
(((g3
g4
tp9442
(g6
g21
tp9443
(g8
Ntp9444
(g10
Ntp9445
g10
tp9446
g8
tp9447
F0.5
saI1180
aa(lp9448
(dp9449
(((g3
g4
tp9450
(g6
Ntp9451
(g8
Ntp9452
(g10
Ntp9453
g21
tp9454
Ntp9455
F1.0
saI1181
aa(lp9456
(dp9457
(((g3
g41
tp9458
(g6
Ntp9459
(g8
Ntp9460
(g10
Ntp9461
g21
tp9462
g21
tp9463
F4.238728940794542
saI1182
aa(lp9464
(dp9465
(((g3
g4
tp9466
(g6
Ntp9467
(g8
Ntp9468
(g10
Ntp9469
g21
tp9470
Ntp9471
F1.0
saI1183
aa(lp9472
(dp9473
(((g3
g4
tp9474
(g6
Ntp9475
(g8
Ntp9476
(g10
Ntp9477
g21
tp9478
Ntp9479
F1.0
saI1184
aa(lp9480
(dp9481
(((g3
g4
tp9482
(g6
Ntp9483
(g8
Ntp9484
(g10
Ntp9485
g21
tp9486
Ntp9487
F1.0
saI1185
aa(lp9488
(dp9489
(((g3
g41
tp9490
(g6
Ntp9491
(g8
Ntp9492
(g10
Ntp9493
g21
tp9494
g21
tp9495
F3.9029195996753607
saI1186
aa(lp9496
(dp9497
(((g3
g4
tp9498
(g6
Ntp9499
(g8
Ntp9500
(g10
Ntp9501
g21
tp9502
Ntp9503
F1.0
saI1187
aa(lp9504
(dp9505
(((g3
g4
tp9506
(g6
Ntp9507
(g8
Ntp9508
(g10
Ntp9509
g21
tp9510
Ntp9511
F1.0
saI1188
aa(lp9512
(dp9513
(((g3
g4
tp9514
(g6
Ntp9515
(g8
Ntp9516
(g10
Ntp9517
g21
tp9518
Ntp9519
F1.0
saI1189
aa(lp9520
(dp9521
(((g3
g41
tp9522
(g6
Ntp9523
(g8
Ntp9524
(g10
Ntp9525
g21
tp9526
g21
tp9527
F3.6174816597240564
saI1190
aa(lp9528
(dp9529
(((g3
g4
tp9530
(g6
Ntp9531
(g8
Ntp9532
(g10
Ntp9533
g21
tp9534
Ntp9535
F1.0
saI1191
aa(lp9536
(dp9537
(((g3
g4
tp9538
(g6
Ntp9539
(g8
Ntp9540
(g10
Ntp9541
g21
tp9542
Ntp9543
F1.0
saI1192
aa(lp9544
(dp9545
(((g3
g4
tp9546
(g6
Ntp9547
(g8
Ntp9548
(g10
Ntp9549
g21
tp9550
Ntp9551
F1.0
saI1193
aa(lp9552
(dp9553
(((g3
g41
tp9554
(g6
Ntp9555
(g8
Ntp9556
(g10
Ntp9557
g21
tp9558
g21
tp9559
F3.374859410765448
saI1194
aa(lp9560
(dp9561
(((g3
g41
tp9562
(g6
Ntp9563
(g8
Ntp9564
(g10
Ntp9565
g10
tp9566
g10
tp9567
F3.711881867081093
saI1195
aa(lp9568
(dp9569
(((g3
g4
tp9570
(g6
Ntp9571
(g8
Ntp9572
(g10
Ntp9573
g10
tp9574
g21
tp9575
F-1.0
saI1196
aa(lp9576
(dp9577
(((g3
g4
tp9578
(g6
Ntp9579
(g8
Ntp9580
(g10
Ntp9581
g10
tp9582
Ntp9583
F1.0
saI1197
aa(lp9584
(dp9585
(((g3
g4
tp9586
(g6
Ntp9587
(g8
Ntp9588
(g10
Ntp9589
g10
tp9590
Ntp9591
F1.0
saI1198
aa(lp9592
(dp9593
(((g3
g41
tp9594
(g6
Ntp9595
(g8
Ntp9596
(g10
Ntp9597
g10
tp9598
g10
tp9599
F3.455099587018929
saI1199
aa(lp9600
(dp9601
(((g3
g41
tp9602
(g6
Ntp9603
(g8
Ntp9604
(g10
Ntp9605
g21
tp9606
g21
tp9607
F3.168630499150631
saI1200
aa(lp9608
(dp9609
(((g3
g4
tp9610
(g6
Ntp9611
(g8
Ntp9612
(g10
Ntp9613
g21
tp9614
Ntp9615
F1.0
saI1201
aa(lp9616
(dp9617
(((g3
g41
tp9618
(g6
Ntp9619
(g8
Ntp9620
(g10
Ntp9621
g21
tp9622
g21
tp9623
F2.9933359242780364
saI1202
aa(lp9624
(dp9625
(((g3
g41
tp9626
(g6
Ntp9627
(g8
Ntp9628
(g10
Ntp9629
g8
tp9630
g10
tp9631
F0.5
saI1203
aa(lp9632
(dp9633
(((g3
g41
tp9634
(g6
Ntp9635
(g8
Ntp9636
(g10
Ntp9637
g21
tp9638
g21
tp9639
F2.844335535636331
saI1204
aa(lp9640
(dp9641
(((g3
g41
tp9642
(g6
Ntp9643
(g8
Ntp9644
(g10
Ntp9645
g21
tp9646
g21
tp9647
F2.717685205290881
saI1205
aa(lp9648
(dp9649
(((g3
g41
tp9650
(g6
Ntp9651
(g8
Ntp9652
(g10
Ntp9653
g21
tp9654
g21
tp9655
F2.610032424497249
saI1206
aa(lp9656
(dp9657
(((g3
g41
tp9658
(g6
Ntp9659
(g8
g10
tp9660
(g10
Ntp9661
g21
tp9662
g21
tp9663
I12
saI1207
aa(lp9664
(dp9665
(((g3
g41
tp9666
(g6
Ntp9667
(g8
Ntp9668
(g10
Ntp9669
g10
tp9670
g10
tp9671
F3.2368346489660897
saI1208
aa(lp9672
(dp9673
(((g3
g41
tp9674
(g6
Ntp9675
(g8
Ntp9676
(g10
Ntp9677
g8
tp9678
Ntp9679
F1.0
saI1209
aa(lp9680
(dp9681
(((g3
g41
tp9682
(g6
Ntp9683
(g8
Ntp9684
(g10
Ntp9685
g8
tp9686
g8
tp9687
F3.080318476357896
saI1210
aa(lp9688
(dp9689
(((g3
g41
tp9690
(g6
Ntp9691
(g8
Ntp9692
(g10
Ntp9693
g10
tp9694
g21
tp9695
F0.5
saI1211
aa(lp9696
(dp9697
(((g3
g4
tp9698
(g6
g10
tp9699
(g8
Ntp9700
(g10
Ntp9701
g10
tp9702
g21
tp9703
I-1
saI1212
aa(lp9704
(dp9705
(((g3
g4
tp9706
(g6
g10
tp9707
(g8
Ntp9708
(g10
Ntp9709
g10
tp9710
g21
tp9711
F-1.0
saI1213
aa(lp9712
(dp9713
(((g3
g41
tp9714
(g6
Ntp9715
(g8
Ntp9716
(g10
Ntp9717
g10
tp9718
g10
tp9719
F3.0513094516211763
saI1214
aa(lp9720
(dp9721
(((g3
g4
tp9722
(g6
Ntp9723
(g8
Ntp9724
(g10
Ntp9725
g8
tp9726
g8
tp9727
F2.0000394265644967
saI1215
aa(lp9728
(dp9729
(((g3
g41
tp9730
(g6
Ntp9731
(g8
Ntp9732
(g10
Ntp9733
g10
tp9734
g10
tp9735
F2.8936130338779997
saI1216
aa(lp9736
(dp9737
(((g3
g41
tp9738
(g6
Ntp9739
(g8
Ntp9740
(g10
Ntp9741
g21
tp9742
g21
tp9743
F2.5185275608226614
saI1217
aa(lp9744
(dp9745
(((g3
g4
tp9746
(g6
Ntp9747
(g8
Ntp9748
(g10
Ntp9749
g21
tp9750
Ntp9751
F1.0
saI1218
aa(lp9752
(dp9753
(((g3
g4
tp9754
(g6
Ntp9755
(g8
Ntp9756
(g10
Ntp9757
g21
tp9758
Ntp9759
F1.0
saI1219
aa(lp9760
(dp9761
(((g3
g4
tp9762
(g6
Ntp9763
(g8
Ntp9764
(g10
Ntp9765
g21
tp9766
Ntp9767
F1.0
saI1220
aa(lp9768
(dp9769
(((g3
g4
tp9770
(g6
Ntp9771
(g8
Ntp9772
(g10
Ntp9773
g21
tp9774
g21
tp9775
F-1.0
saI1221
aa(lp9776
(dp9777
(((g3
g4
tp9778
(g6
Ntp9779
(g8
Ntp9780
(g10
Ntp9781
g21
tp9782
Ntp9783
F1.0
saI1222
aa(lp9784
(dp9785
(((g3
g41
tp9786
(g6
Ntp9787
(g8
Ntp9788
(g10
Ntp9789
g21
tp9790
g21
tp9791
F2.4407484266992623
saI1223
aa(lp9792
(dp9793
(((g3
g41
tp9794
(g6
Ntp9795
(g8
Ntp9796
(g10
Ntp9797
g8
tp9798
g8
tp9799
F2.9182707049042116
saI1224
aa(lp9800
(dp9801
(((g3
g4
tp9802
(g6
Ntp9803
(g8
Ntp9804
(g10
Ntp9805
g21
tp9806
Ntp9807
F1.0
saI1225
aa(lp9808
(dp9809
(((g3
g4
tp9810
(g6
Ntp9811
(g8
Ntp9812
(g10
Ntp9813
g21
tp9814
Ntp9815
F1.0
saI1226
aa(lp9816
(dp9817
(((g3
g4
tp9818
(g6
Ntp9819
(g8
Ntp9820
(g10
Ntp9821
g21
tp9822
Ntp9823
F1.0
saI1227
aa(lp9824
(dp9825
(((g3
g41
tp9826
(g6
Ntp9827
(g8
Ntp9828
(g10
Ntp9829
g21
tp9830
g21
tp9831
F3.8746361626943733
saI1228
aa(lp9832
(dp9833
(((g3
g4
tp9834
(g6
Ntp9835
(g8
Ntp9836
(g10
Ntp9837
g8
tp9838
g8
tp9839
F2.0000335125798223
saI1229
aa(lp9840
(dp9841
(((g3
g41
tp9842
(g6
Ntp9843
(g8
Ntp9844
(g10
Ntp9845
g21
tp9846
g21
tp9847
F3.593440738290217
saI1230
aa(lp9848
(dp9849
(((g3
g41
tp9850
(g6
Ntp9851
(g8
Ntp9852
(g10
Ntp9853
g21
tp9854
g21
tp9855
F3.3544246275466847
saI1231
aa(lp9856
(dp9857
(((g3
g4
tp9858
(g6
Ntp9859
(g8
Ntp9860
(g10
Ntp9861
g21
tp9862
Ntp9863
F1.0
saI1232
aa(lp9864
(dp9865
(((g3
g41
tp9866
(g6
Ntp9867
(g8
Ntp9868
(g10
Ntp9869
g21
tp9870
g21
tp9871
F4.651260933414682
saI1233
aa(lp9872
(dp9873
(((g3
g4
tp9874
(g6
Ntp9875
(g8
Ntp9876
(g10
Ntp9877
g8
tp9878
g8
tp9879
F2.000028485692849
saI1234
aa(lp9880
(dp9881
(((g3
g41
tp9882
(g6
Ntp9883
(g8
Ntp9884
(g10
Ntp9885
g8
tp9886
g8
tp9887
F2.7805300991685797
saI1235
aa(lp9888
(dp9889
(((g3
g41
tp9890
(g6
Ntp9891
(g8
Ntp9892
(g10
Ntp9893
g10
tp9894
g10
tp9895
F2.7595710787963
saI1236
aa(lp9896
(dp9897
(((g3
g4
tp9898
(g6
Ntp9899
(g8
Ntp9900
(g10
Ntp9901
g21
tp9902
Ntp9903
F1.0
saI1237
aa(lp9904
(dp9905
(((g3
g41
tp9906
(g6
Ntp9907
(g8
Ntp9908
(g10
Ntp9909
g21
tp9910
g21
tp9911
F4.25357179340248
saI1238
aa(lp9912
(dp9913
(((g3
g4
tp9914
(g6
Ntp9915
(g8
Ntp9916
(g10
Ntp9917
g8
tp9918
g8
tp9919
F2.0000242128389214
saI1239
aa(lp9920
(dp9921
(((g3
g4
tp9922
(g6
Ntp9923
(g8
Ntp9924
(g10
Ntp9925
g21
tp9926
Ntp9927
F1.0
saI1240
aa(lp9928
(dp9929
(((g3
g4
tp9930
(g6
Ntp9931
(g8
Ntp9932
(g10
Ntp9933
g21
tp9934
Ntp9935
F1.0
saI1241
aa(lp9936
(dp9937
(((g3
g4
tp9938
(g6
Ntp9939
(g8
Ntp9940
(g10
Ntp9941
g21
tp9942
Ntp9943
F1.0
saI1242
aa(lp9944
(dp9945
(((g3
g41
tp9946
(g6
Ntp9947
(g8
Ntp9948
(g10
Ntp9949
g21
tp9950
g21
tp9951
F5.415536024392107
saI1243
aa(lp9952
(dp9953
(((g3
g4
tp9954
(g6
Ntp9955
(g8
Ntp9956
(g10
Ntp9957
g8
tp9958
g10
tp9959
F-1.0
saI1244
aa(lp9960
(dp9961
(((g3
g4
tp9962
(g6
Ntp9963
(g8
Ntp9964
(g10
Ntp9965
g8
tp9966
g8
tp9967
F2.000020580913083
saI1245
aa(lp9968
(dp9969
(((g3
g4
tp9970
(g6
Ntp9971
(g8
Ntp9972
(g10
Ntp9973
g21
tp9974
Ntp9975
F1.0
saI1246
aa(lp9976
(dp9977
(((g3
g4
tp9978
(g6
Ntp9979
(g8
Ntp9980
(g10
Ntp9981
g21
tp9982
g21
tp9983
F-1.0
saI1247
aa(lp9984
(dp9985
(((g3
g4
tp9986
(g6
Ntp9987
(g8
Ntp9988
(g10
Ntp9989
g21
tp9990
Ntp9991
F1.0
saI1248
aa(lp9992
(dp9993
(((g3
g41
tp9994
(g6
Ntp9995
(g8
Ntp9996
(g10
Ntp9997
g21
tp9998
g21
tp9999
F4.903205620733291
saI1249
aa(lp10000
(dp10001
(((g3
g4
tp10002
(g6
Ntp10003
(g8
Ntp10004
(g10
Ntp10005
g21
tp10006
Ntp10007
F1.0
saI1250
aa(lp10008
(dp10009
(((g3
g4
tp10010
(g6
Ntp10011
(g8
Ntp10012
(g10
Ntp10013
g21
tp10014
Ntp10015
F1.0
saI1251
aa(lp10016
(dp10017
(((g3
g4
tp10018
(g6
Ntp10019
(g8
Ntp10020
(g10
Ntp10021
g21
tp10022
Ntp10023
F1.0
saI1252
aa(lp10024
(dp10025
(((g3
g41
tp10026
(g6
Ntp10027
(g8
Ntp10028
(g10
Ntp10029
g21
tp10030
g21
tp10031
F4.467724777623298
saI1253
aa(lp10032
(dp10033
(((g3
g41
tp10034
(g6
Ntp10035
(g8
Ntp10036
(g10
Ntp10037
g21
tp10038
g21
tp10039
F4.097566060979803
saI1254
aa(lp10040
(dp10041
(((g3
g41
tp10042
(g6
Ntp10043
(g8
Ntp10044
(g10
Ntp10045
g21
tp10046
g21
tp10047
F3.7829311518328326
saI1255
aa(lp10048
(dp10049
(((g3
g4
tp10050
(g6
Ntp10051
(g8
Ntp10052
(g10
Ntp10053
g8
tp10054
g8
tp10055
F3.50001749377612
saI1256
aa(lp10056
(dp10057
(((g3
g41
tp10058
(g6
Ntp10059
(g8
Ntp10060
(g10
Ntp10061
g8
tp10062
g8
tp10063
F2.663450584293293
saI1257
aa(lp10064
(dp10065
(((g3
g41
tp10066
(g6
Ntp10067
(g8
Ntp10068
(g10
Ntp10069
g8
tp10070
g8
tp10071
F2.563932996649299
saI1258
aa(lp10072
(dp10073
(((g3
g41
tp10074
(g6
Ntp10075
(g8
Ntp10076
(g10
Ntp10077
g10
tp10078
g10
tp10079
F2.645635416976855
saI1259
aa(lp10080
(dp10081
(((g3
g41
tp10082
(g6
Ntp10083
(g8
Ntp10084
(g10
Ntp10085
g8
tp10086
g8
tp10087
F2.4793430471519042
saI1260
aa(lp10088
(dp10089
(((g3
g4
tp10090
(g6
Ntp10091
(g8
Ntp10092
(g10
Ntp10093
g10
tp10094
Ntp10095
F1.0
saI1261
aa(lp10096
(dp10097
(((g3
g4
tp10098
(g6
Ntp10099
(g8
Ntp10100
(g10
Ntp10101
g10
tp10102
Ntp10103
F1.0
saI1262
aa(lp10104
(dp10105
(((g3
g41
tp10106
(g6
Ntp10107
(g8
Ntp10108
(g10
Ntp10109
g10
tp10110
g10
tp10111
F2.5487901044303265
saI1263
aa(lp10112
(dp10113
(((g3
g41
tp10114
(g6
Ntp10115
(g8
Ntp10116
(g10
Ntp10117
g8
tp10118
g8
tp10119
F2.4074415900791184
saI1264
aa(lp10120
(dp10121
(((g3
g4
tp10122
(g6
Ntp10123
(g8
Ntp10124
(g10
Ntp10125
g10
tp10126
Ntp10127
F1.0
saI1265
aa(lp10128
(dp10129
(((g3
g4
tp10130
(g6
Ntp10131
(g8
Ntp10132
(g10
Ntp10133
g10
tp10134
g21
tp10135
F-1.0
saI1266
aa(lp10136
(dp10137
(((g3
g41
tp10138
(g6
Ntp10139
(g8
Ntp10140
(g10
Ntp10141
g10
tp10142
g10
tp10143
F2.4664715887657773
saI1267
aa(lp10144
(dp10145
(((g3
g41
tp10146
(g6
Ntp10147
(g8
Ntp10148
(g10
Ntp10149
g21
tp10150
g21
tp10151
F3.515491479057908
saI1268
aa(lp10152
(dp10153
(((g3
g41
tp10154
(g6
Ntp10155
(g8
Ntp10156
(g10
Ntp10157
g8
tp10158
g8
tp10159
F2.3463253515672506
saI1269
aa(lp10160
(dp10161
(((g3
g4
tp10162
(g6
Ntp10163
(g8
Ntp10164
(g10
Ntp10165
g21
tp10166
Ntp10167
F1.0
saI1270
aa(lp10168
(dp10169
(((g3
g4
tp10170
(g6
Ntp10171
(g8
Ntp10172
(g10
Ntp10173
g21
tp10174
Ntp10175
F1.0
saI1271
aa(lp10176
(dp10177
(((g3
g4
tp10178
(g6
Ntp10179
(g8
Ntp10180
(g10
Ntp10181
g21
tp10182
Ntp10183
F1.0
saI1272
aa(lp10184
(dp10185
(((g3
g41
tp10186
(g6
Ntp10187
(g8
Ntp10188
(g10
Ntp10189
g21
tp10190
g21
tp10191
F4.788167757199222
saI1273
aa(lp10192
(dp10193
(((g3
g4
tp10194
(g6
Ntp10195
(g8
Ntp10196
(g10
Ntp10197
g10
tp10198
g10
tp10199
F-1.0
saI1274
aa(lp10200
(dp10201
(((g3
g4
tp10202
(g6
Ntp10203
(g8
Ntp10204
(g10
Ntp10205
g10
tp10206
Ntp10207
F1.0
saI1275
aa(lp10208
(dp10209
(((g3
g4
tp10210
(g6
Ntp10211
(g8
Ntp10212
(g10
Ntp10213
g10
tp10214
Ntp10215
F1.0
saI1276
aa(lp10216
(dp10217
(((g3
g41
tp10218
(g6
Ntp10219
(g8
Ntp10220
(g10
Ntp10221
g10
tp10222
g10
tp10223
F2.3965008504509107
saI1277
aa(lp10224
(dp10225
(((g3
g41
tp10226
(g6
Ntp10227
(g8
Ntp10228
(g10
Ntp10229
g21
tp10230
g21
tp10231
F4.369942593619339
saI1278
aa(lp10232
(dp10233
(((g3
g41
tp10234
(g6
Ntp10235
(g8
Ntp10236
(g10
Ntp10237
g21
tp10238
g21
tp10239
F4.014451204576438
saI1279
aa(lp10240
(dp10241
(((g3
g41
tp10242
(g6
Ntp10243
(g8
Ntp10244
(g10
Ntp10245
g8
tp10246
g8
tp10247
F2.294376548832163
saI1280
aa(lp10248
(dp10249
(((g3
g41
tp10250
(g6
Ntp10251
(g8
Ntp10252
(g10
Ntp10253
g21
tp10254
g21
tp10255
F5.2122835238899725
saI1281
aa(lp10256
(dp10257
(((g3
g41
tp10258
(g6
Ntp10259
(g8
Ntp10260
(g10
Ntp10261
g21
tp10262
g21
tp10263
F4.730440995306477
saI1282
aa(lp10264
(dp10265
(((g3
g41
tp10266
(g6
Ntp10267
(g8
Ntp10268
(g10
Ntp10269
g21
tp10270
g21
tp10271
F4.320874846010505
saI1283
aa(lp10272
(dp10273
(((g3
g4
tp10274
(g6
Ntp10275
(g8
Ntp10276
(g10
Ntp10277
g21
tp10278
Ntp10279
F1.0
saI1284
aa(lp10280
(dp10281
(((g3
g41
tp10282
(g6
Ntp10283
(g8
Ntp10284
(g10
Ntp10285
g21
tp10286
g21
tp10287
F3.9727436191089294
saI1285
aa(lp10288
(dp10289
(((g3
g4
tp10290
(g6
Ntp10291
(g8
Ntp10292
(g10
Ntp10293
g10
tp10294
Ntp10295
F1.0
saI1286
aa(lp10296
(dp10297
(((g3
g4
tp10298
(g6
Ntp10299
(g8
Ntp10300
(g10
Ntp10301
g10
tp10302
Ntp10303
F1.0
saI1287
aa(lp10304
(dp10305
(((g3
g4
tp10306
(g6
Ntp10307
(g8
Ntp10308
(g10
Ntp10309
g10
tp10310
Ntp10311
F1.0
saI1288
aa(lp10312
(dp10313
(((g3
g4
tp10314
(g6
Ntp10315
(g8
Ntp10316
(g10
Ntp10317
g10
tp10318
Ntp10319
F1.0
saI1289
aa(lp10320
(dp10321
(((g3
g41
tp10322
(g6
Ntp10323
(g8
Ntp10324
(g10
Ntp10325
g10
tp10326
g10
tp10327
F3.837025722883274
saI1290
aa(lp10328
(dp10329
(((g3
g41
tp10330
(g6
Ntp10331
(g8
Ntp10332
(g10
Ntp10333
g10
tp10334
g10
tp10335
F3.5614718644507826
saI1291
aa(lp10336
(dp10337
(((g3
g41
tp10338
(g6
Ntp10339
(g8
Ntp10340
(g10
Ntp10341
g8
tp10342
g8
tp10343
F2.2502200665073384
saI1292
aa(lp10344
(dp10345
(((g3
g4
tp10346
(g6
Ntp10347
(g8
Ntp10348
(g10
Ntp10349
g10
tp10350
Ntp10351
F1.0
saI1293
aa(lp10352
(dp10353
(((g3
g4
tp10354
(g6
Ntp10355
(g8
Ntp10356
(g10
Ntp10357
g10
tp10358
Ntp10359
F1.0
saI1294
aa(lp10360
(dp10361
(((g3
g41
tp10362
(g6
Ntp10363
(g8
Ntp10364
(g10
Ntp10365
g10
tp10366
g10
tp10367
F3.3272510847831653
saI1295
aa(lp10368
(dp10369
(((g3
g4
tp10370
(g6
Ntp10371
(g8
Ntp10372
(g10
Ntp10373
g21
tp10374
Ntp10375
F1.0
saI1296
aa(lp10376
(dp10377
(((g3
g4
tp10378
(g6
Ntp10379
(g8
Ntp10380
(g10
Ntp10381
g21
tp10382
Ntp10383
F1.0
saI1297
aa(lp10384
(dp10385
(((g3
g4
tp10386
(g6
Ntp10387
(g8
Ntp10388
(g10
Ntp10389
g21
tp10390
Ntp10391
F1.0
saI1298
aa(lp10392
(dp10393
(((g3
g4
tp10394
(g6
Ntp10395
(g8
Ntp10396
(g10
Ntp10397
g21
tp10398
Ntp10399
F1.0
saI1299
aa(lp10400
(dp10401
(((g3
g4
tp10402
(g6
Ntp10403
(g8
Ntp10404
(g10
Ntp10405
g21
tp10406
Ntp10407
F1.0
saI1300
aa(lp10408
(dp10409
(((g3
g41
tp10410
(g6
Ntp10411
(g8
Ntp10412
(g10
Ntp10413
g21
tp10414
g21
tp10415
F3.67683207624259
saI1301
aa(lp10416
(dp10417
(((g3
g4
tp10418
(g6
Ntp10419
(g8
Ntp10420
(g10
Ntp10421
g8
tp10422
g8
tp10423
F4.775014869709702
saI1302
aa(lp10424
(dp10425
(((g3
g41
tp10426
(g6
Ntp10427
(g8
Ntp10428
(g10
Ntp10429
g8
tp10430
g8
tp10431
F2.2126870565312378
saI1303
aa(lp10432
(dp10433
(((g3
g41
tp10434
(g6
Ntp10435
(g8
Ntp10436
(g10
Ntp10437
g21
tp10438
g21
tp10439
F3.4253072648062015
saI1304
aa(lp10440
(dp10441
(((g3
g41
tp10442
(g6
Ntp10443
(g8
Ntp10444
(g10
Ntp10445
g21
tp10446
g21
tp10447
F4.711511175085271
saI1305
aa(lp10448
(dp10449
(((g3
g4
tp10450
(g6
Ntp10451
(g8
Ntp10452
(g10
Ntp10453
g8
tp10454
g8
tp10455
F4.358762639253246
saI1306
aa(lp10456
(dp10457
(((g3
g41
tp10458
(g6
Ntp10459
(g8
Ntp10460
(g10
Ntp10461
g21
tp10462
g21
tp10463
F5.804784498822481
saI1307
aa(lp10464
(dp10465
(((g3
g4
tp10466
(g6
Ntp10467
(g8
Ntp10468
(g10
Ntp10469
g8
tp10470
g8
tp10471
F4.004948243365259
saI1308
aa(lp10472
(dp10473
(((g3
g41
tp10474
(g6
Ntp10475
(g8
Ntp10476
(g10
Ntp10477
g10
tp10478
g10
tp10479
F3.1281634220656906
saI1309
aa(lp10480
(dp10481
(((g3
g4
tp10482
(g6
Ntp10483
(g8
Ntp10484
(g10
Ntp10485
g8
tp10486
g8
tp10487
F3.7042060068604705
saI1310
aa(lp10488
(dp10489
(((g3
g41
tp10490
(g6
Ntp10491
(g8
Ntp10492
(g10
Ntp10493
g10
tp10494
g10
tp10495
F2.958938908755837
saI1311
aa(lp10496
(dp10497
(((g3
g4
tp10498
(g6
Ntp10499
(g8
Ntp10500
(g10
g21
tp10501
g8
tp10502
g8
tp10503
I2
saI1312
aa(lp10504
(dp10505
(((g3
g4
tp10506
(g6
Ntp10507
(g8
Ntp10508
(g10
Ntp10509
g10
tp10510
g10
tp10511
F-1.0
saI1313
aa(lp10512
(dp10513
(((g3
g4
tp10514
(g6
Ntp10515
(g8
Ntp10516
(g10
Ntp10517
g10
tp10518
Ntp10519
F1.0
saI1314
aa(lp10520
(dp10521
(((g3
g4
tp10522
(g6
Ntp10523
(g8
Ntp10524
(g10
Ntp10525
g10
tp10526
Ntp10527
F1.0
saI1315
aa(lp10528
(dp10529
(((g3
g4
tp10530
(g6
Ntp10531
(g8
Ntp10532
(g10
Ntp10533
g10
tp10534
Ntp10535
F1.0
saI1316
aa(lp10536
(dp10537
(((g3
g4
tp10538
(g6
Ntp10539
(g8
Ntp10540
(g10
Ntp10541
g10
tp10542
Ntp10543
F1.0
saI1317
aa(lp10544
(dp10545
(((g3
g41
tp10546
(g6
Ntp10547
(g8
Ntp10548
(g10
Ntp10549
g10
tp10550
g10
tp10551
F2.8150980724424617
saI1318
aa(lp10552
(dp10553
(((g3
g4
tp10554
(g6
Ntp10555
(g8
Ntp10556
(g10
Ntp10557
g8
tp10558
g8
tp10559
F3.4485751058314
saI1319
aa(lp10560
(dp10561
(((g3
g4
tp10562
(g6
Ntp10563
(g8
Ntp10564
(g10
Ntp10565
g10
tp10566
Ntp10567
F1.0
saI1320
aa(lp10568
(dp10569
(((g3
g4
tp10570
(g6
Ntp10571
(g8
Ntp10572
(g10
Ntp10573
g10
tp10574
Ntp10575
F1.0
saI1321
aa(lp10576
(dp10577
(((g3
g4
tp10578
(g6
Ntp10579
(g8
Ntp10580
(g10
Ntp10581
g10
tp10582
Ntp10583
F1.0
saI1322
aa(lp10584
(dp10585
(((g3
g41
tp10586
(g6
Ntp10587
(g8
Ntp10588
(g10
Ntp10589
g10
tp10590
Ntp10591
F1.0
saI1323
aa(lp10592
(dp10593
(((g3
g41
tp10594
(g6
Ntp10595
(g8
Ntp10596
(g10
Ntp10597
g10
tp10598
g10
tp10599
F2.6928333615760924
saI1324
aa(lp10600
(dp10601
(((g3
g4
tp10602
(g6
Ntp10603
(g8
Ntp10604
(g10
Ntp10605
g21
tp10606
Ntp10607
F1.0
saI1325
aa(lp10608
(dp10609
(((g3
g4
tp10610
(g6
Ntp10611
(g8
Ntp10612
(g10
Ntp10613
g21
tp10614
Ntp10615
F1.0
saI1326
aa(lp10616
(dp10617
(((g3
g4
tp10618
(g6
Ntp10619
(g8
Ntp10620
(g10
Ntp10621
g21
tp10622
Ntp10623
F1.0
saI1327
aa(lp10624
(dp10625
(((g3
g41
tp10626
(g6
Ntp10627
(g8
Ntp10628
(g10
Ntp10629
g21
tp10630
g21
tp10631
F5.234066823999108
saI1328
aa(lp10632
(dp10633
(((g3
g41
tp10634
(g6
Ntp10635
(g8
Ntp10636
(g10
Ntp10637
g10
tp10638
g10
tp10639
F4.088908357339679
saI1329
aa(lp10640
(dp10641
(((g3
g41
tp10642
(g6
Ntp10643
(g8
Ntp10644
(g10
Ntp10645
g8
tp10646
g8
tp10647
F2.180783998051552
saI1330
aa(lp10648
(dp10649
(((g3
g4
tp10650
(g6
Ntp10651
(g8
Ntp10652
(g10
Ntp10653
g10
tp10654
Ntp10655
F1.0
saI1331
aa(lp10656
(dp10657
(((g3
g4
tp10658
(g6
Ntp10659
(g8
Ntp10660
(g10
Ntp10661
g10
tp10662
Ntp10663
F1.0
saI1332
aa(lp10664
(dp10665
(((g3
g41
tp10666
(g6
Ntp10667
(g8
Ntp10668
(g10
Ntp10669
g10
tp10670
g10
tp10671
F5.275572103738726
saI1333
aa(lp10672
(dp10673
(((g3
g41
tp10674
(g6
Ntp10675
(g8
Ntp10676
(g10
Ntp10677
g8
tp10678
g8
tp10679
F2.153666398343819
saI1334
aa(lp10680
(dp10681
(((g3
g4
tp10682
(g6
Ntp10683
(g8
Ntp10684
(g10
Ntp10685
g21
tp10686
Ntp10687
F1.0
saI1335
aa(lp10688
(dp10689
(((g3
g4
tp10690
(g6
Ntp10691
(g8
Ntp10692
(g10
Ntp10693
g21
tp10694
Ntp10695
F1.0
saI1336
aa(lp10696
(dp10697
(((g3
g4
tp10698
(g6
Ntp10699
(g8
Ntp10700
(g10
Ntp10701
g21
tp10702
Ntp10703
F1.0
saI1337
aa(lp10704
(dp10705
(((g3
g41
tp10706
(g6
Ntp10707
(g8
Ntp10708
(g10
Ntp10709
g21
tp10710
g21
tp10711
F4.748956800399242
saI1338
aa(lp10712
(dp10713
(((g3
g41
tp10714
(g6
Ntp10715
(g8
Ntp10716
(g10
Ntp10717
g21
tp10718
g21
tp10719
F4.336613280339355
saI1339
aa(lp10720
(dp10721
(((g3
g4
tp10722
(g6
Ntp10723
(g8
Ntp10724
(g10
Ntp10725
g21
tp10726
Ntp10727
F1.0
saI1340
aa(lp10728
(dp10729
(((g3
g4
tp10730
(g6
Ntp10731
(g8
Ntp10732
(g10
Ntp10733
g21
tp10734
Ntp10735
F1.0
saI1341
aa(lp10736
(dp10737
(((g3
g4
tp10738
(g6
Ntp10739
(g8
Ntp10740
(g10
Ntp10741
g21
tp10742
Ntp10743
F1.0
saI1342
aa(lp10744
(dp10745
(((g3
g4
tp10746
(g6
Ntp10747
(g8
Ntp10748
(g10
Ntp10749
g21
tp10750
Ntp10751
F1.0
saI1343
aa(lp10752
(dp10753
(((g3
g41
tp10754
(g6
Ntp10755
(g8
Ntp10756
(g10
Ntp10757
g21
tp10758
g21
tp10759
F5.486121288288452
saI1344
aa(lp10760
(dp10761
(((g3
g41
tp10762
(g6
Ntp10763
(g8
Ntp10764
(g10
Ntp10765
g8
tp10766
g8
tp10767
F2.1306164385922464
saI1345
aa(lp10768
(dp10769
(((g3
g41
tp10770
(g6
Ntp10771
(g8
Ntp10772
(g10
Ntp10773
g10
tp10774
g10
tp10775
F4.784236288177917
saI1346
aa(lp10776
(dp10777
(((g3
g4
tp10778
(g6
Ntp10779
(g8
Ntp10780
(g10
Ntp10781
g8
tp10782
g8
tp10783
F3.23128883995669
saI1347
aa(lp10784
(dp10785
(((g3
g4
tp10786
(g6
Ntp10787
(g8
Ntp10788
(g10
Ntp10789
g10
tp10790
Ntp10791
F1.0
saI1348
aa(lp10792
(dp10793
(((g3
g41
tp10794
(g6
Ntp10795
(g8
Ntp10796
(g10
Ntp10797
g10
tp10798
g10
tp10799
F4.366600844951229
saI1349
aa(lp10800
(dp10801
(((g3
g4
tp10802
(g6
Ntp10803
(g8
Ntp10804
(g10
Ntp10805
g8
tp10806
g8
tp10807
F3.0465955139631866
saI1350
aa(lp10808
(dp10809
(((g3
g41
tp10810
(g6
Ntp10811
(g8
Ntp10812
(g10
Ntp10813
g10
tp10814
g10
tp10815
F4.011610718208544
saI1351
aa(lp10816
(dp10817
(((g3
g4
tp10818
(g6
Ntp10819
(g8
Ntp10820
(g10
Ntp10821
g8
tp10822
g8
tp10823
F2.8896061868687086
saI1352
aa(lp10824
(dp10825
(((g3
g41
tp10826
(g6
Ntp10827
(g8
Ntp10828
(g10
Ntp10829
g10
tp10830
g10
tp10831
F3.7098691104772628
saI1353
aa(lp10832
(dp10833
(((g3
g41
tp10834
(g6
Ntp10835
(g8
Ntp10836
(g10
Ntp10837
g8
tp10838
g8
tp10839
F2.1110239728034093
saI1354
aa(lp10840
(dp10841
(((g3
g41
tp10842
(g6
Ntp10843
(g8
Ntp10844
(g10
Ntp10845
g21
tp10846
g21
tp10847
F4.963203095045184
saI1355
aa(lp10848
(dp10849
(((g3
g4
tp10850
(g6
Ntp10851
(g8
Ntp10852
(g10
Ntp10853
g21
tp10854
Ntp10855
F1.0
saI1356
aa(lp10856
(dp10857
(((g3
g4
tp10858
(g6
Ntp10859
(g8
Ntp10860
(g10
Ntp10861
g21
tp10862
Ntp10863
F1.0
saI1357
aa(lp10864
(dp10865
(((g3
g4
tp10866
(g6
Ntp10867
(g8
Ntp10868
(g10
Ntp10869
g21
tp10870
Ntp10871
F1.0
saI1358
aa(lp10872
(dp10873
(((g3
g4
tp10874
(g6
Ntp10875
(g8
g10
tp10876
(g10
Ntp10877
g21
tp10878
Ntp10879
I1
saI1359
aa(lp10880
(dp10881
(((g3
g41
tp10882
(g6
Ntp10883
(g8
g10
tp10884
(g10
Ntp10885
g21
tp10886
g21
tp10887
F12.0
saI1360
aa(lp10888
(dp10889
(((g3
g41
tp10890
(g6
Ntp10891
(g8
Ntp10892
(g10
Ntp10893
g10
tp10894
g10
tp10895
F3.4533887439056734
saI1361
aa(lp10896
(dp10897
(((g3
g41
tp10898
(g6
Ntp10899
(g8
Ntp10900
(g10
Ntp10901
g8
tp10902
g8
tp10903
F2.094370376882898
saI1362
aa(lp10904
(dp10905
(((g3
g41
tp10906
(g6
Ntp10907
(g8
Ntp10908
(g10
Ntp10909
g10
tp10910
g10
tp10911
F3.2353804323198223
saI1363
aa(lp10912
(dp10913
(((g3
g4
tp10914
(g6
Ntp10915
(g8
Ntp10916
(g10
Ntp10917
g8
tp10918
g8
tp10919
F2.7561652588384025
saI1364
aa(lp10920
(dp10921
(((g3
g4
tp10922
(g6
Ntp10923
(g8
Ntp10924
(g10
Ntp10925
g10
tp10926
Ntp10927
F1.0
saI1365
aa(lp10928
(dp10929
(((g3
g41
tp10930
(g6
Ntp10931
(g8
Ntp10932
(g10
Ntp10933
g10
tp10934
g10
tp10935
F3.0500733674718488
saI1366
aa(lp10936
(dp10937
(((g3
g4
tp10938
(g6
Ntp10939
(g8
Ntp10940
(g10
Ntp10941
g8
tp10942
g8
tp10943
F2.642740470012642
saI1367
aa(lp10944
(dp10945
(((g3
g41
tp10946
(g6
Ntp10947
(g8
Ntp10948
(g10
Ntp10949
g10
tp10950
g10
tp10951
F2.8925623623510717
saI1368
aa(lp10952
(dp10953
(((g3
g4
tp10954
(g6
Ntp10955
(g8
Ntp10956
(g10
Ntp10957
g8
tp10958
Ntp10959
F1.0
saI1369
aa(lp10960
(dp10961
(((g3
g41
tp10962
(g6
Ntp10963
(g8
Ntp10964
(g10
Ntp10965
g8
tp10966
g8
tp10967
F2.0802148203504633
saI1370
aa(lp10968
(dp10969
(((g3
g41
tp10970
(g6
Ntp10971
(g8
Ntp10972
(g10
Ntp10973
g10
tp10974
g10
tp10975
F4.258678007998411
saI1371
aa(lp10976
(dp10977
(((g3
g41
tp10978
(g6
Ntp10979
(g8
Ntp10980
(g10
Ntp10981
g8
tp10982
g8
tp10983
F2.068182597297894
saI1372
aa(lp10984
(dp10985
(((g3
g41
tp10986
(g6
Ntp10987
(g8
Ntp10988
(g10
Ntp10989
g21
tp10990
g21
tp10991
F4.518722630788407
saI1373
aa(lp10992
(dp10993
(((g3
g4
tp10994
(g6
Ntp10995
(g8
Ntp10996
(g10
Ntp10997
g21
tp10998
Ntp10999
F1.0
saI1374
aa(lp11000
(dp11001
(((g3
g4
tp11002
(g6
Ntp11003
(g8
Ntp11004
(g10
Ntp11005
g21
tp11006
Ntp11007
F1.0
saI1375
aa(lp11008
(dp11009
(((g3
g41
tp11010
(g6
Ntp11011
(g8
Ntp11012
(g10
Ntp11013
g21
tp11014
g21
tp11015
F4.140914236170146
saI1376
aa(lp11016
(dp11017
(((g3
g4
tp11018
(g6
Ntp11019
(g8
Ntp11020
(g10
Ntp11021
g21
tp11022
Ntp11023
F1.0
saI1377
aa(lp11024
(dp11025
(((g3
g41
tp11026
(g6
Ntp11027
(g8
Ntp11028
(g10
Ntp11029
g21
tp11030
g21
tp11031
F3.8197771007446244
saI1378
aa(lp11032
(dp11033
(((g3
g4
tp11034
(g6
Ntp11035
(g8
Ntp11036
(g10
Ntp11037
g10
tp11038
Ntp11039
F1.0
saI1379
aa(lp11040
(dp11041
(((g3
g4
tp11042
(g6
Ntp11043
(g8
Ntp11044
(g10
Ntp11045
g10
tp11046
Ntp11047
F1.0
saI1380
aa(lp11048
(dp11049
(((g3
g4
tp11050
(g6
Ntp11051
(g8
Ntp11052
(g10
Ntp11053
g10
tp11054
Ntp11055
F1.0
saI1381
aa(lp11056
(dp11057
(((g3
g41
tp11058
(g6
Ntp11059
(g8
Ntp11060
(g10
Ntp11061
g10
tp11062
g10
tp11063
F3.919876306798649
saI1382
aa(lp11064
(dp11065
(((g3
g41
tp11066
(g6
Ntp11067
(g8
Ntp11068
(g10
Ntp11069
g21
tp11070
g21
tp11071
F5.046810535632931
saI1383
aa(lp11072
(dp11073
(((g3
g41
tp11074
(g6
Ntp11075
(g8
Ntp11076
(g10
Ntp11077
g8
tp11078
g8
tp11079
F2.05795520770321
saI1384
aa(lp11080
(dp11081
(((g3
g41
tp11082
(g6
Ntp11083
(g8
Ntp11084
(g10
Ntp11085
g21
tp11086
g21
tp11087
F4.589788955287991
saI1385
aa(lp11088
(dp11089
(((g3
g4
tp11090
(g6
Ntp11091
(g8
Ntp11092
(g10
Ntp11093
g21
tp11094
Ntp11095
F1.0
saI1386
aa(lp11096
(dp11097
(((g3
g41
tp11098
(g6
Ntp11099
(g8
Ntp11100
(g10
Ntp11101
g21
tp11102
g21
tp11103
F5.701320611994793
saI1387
aa(lp11104
(dp11105
(((g3
g4
tp11106
(g6
g8
tp11107
(g8
Ntp11108
(g10
Ntp11109
g21
tp11110
g10
tp11111
F-1.0
saI1388
aa(lp11112
(dp11113
(((g3
g4
tp11114
(g6
Ntp11115
(g8
Ntp11116
(g10
Ntp11117
g21
tp11118
Ntp11119
F1.0
saI1389
aa(lp11120
(dp11121
(((g3
g4
tp11122
(g6
Ntp11123
(g8
Ntp11124
(g10
Ntp11125
g21
tp11126
Ntp11127
F1.0
saI1390
aa(lp11128
(dp11129
(((g3
g4
tp11130
(g6
Ntp11131
(g8
Ntp11132
(g10
Ntp11133
g21
tp11134
Ntp11135
F1.0
saI1391
aa(lp11136
(dp11137
(((g3
g41
tp11138
(g6
Ntp11139
(g8
Ntp11140
(g10
Ntp11141
g21
tp11142
g21
tp11143
F5.146122520195574
saI1392
aa(lp11144
(dp11145
(((g3
g4
tp11146
(g6
Ntp11147
(g8
Ntp11148
(g10
Ntp11149
g21
tp11150
Ntp11151
F1.0
saI1393
aa(lp11152
(dp11153
(((g3
g4
tp11154
(g6
Ntp11155
(g8
Ntp11156
(g10
Ntp11157
g21
tp11158
g10
tp11159
F-1.0
saI1394
aa(lp11160
(dp11161
(((g3
g4
tp11162
(g6
Ntp11163
(g8
Ntp11164
(g10
Ntp11165
g21
tp11166
Ntp11167
F1.0
saI1395
aa(lp11168
(dp11169
(((g3
g4
tp11170
(g6
Ntp11171
(g8
Ntp11172
(g10
Ntp11173
g21
tp11174
Ntp11175
F1.0
saI1396
aa(lp11176
(dp11177
(((g3
g4
tp11178
(g6
Ntp11179
(g8
g10
tp11180
(g10
Ntp11181
g21
tp11182
Ntp11183
F1.0
saI1397
aa(lp11184
(dp11185
(((g3
g41
tp11186
(g6
Ntp11187
(g8
g10
tp11188
(g10
Ntp11189
g21
tp11190
g21
tp11191
F10.5
saI1398
aa(lp11192
(dp11193
(((g3
g4
tp11194
(g6
Ntp11195
(g8
Ntp11196
(g10
Ntp11197
g21
tp11198
Ntp11199
F1.0
saI1399
aa(lp11200
(dp11201
(((g3
g41
tp11202
(g6
Ntp11203
(g8
Ntp11204
(g10
Ntp11205
g21
tp11206
g21
tp11207
F4.6742041421662375
saI1400
aa(lp11208
(dp11209
(((g3
g4
tp11210
(g6
Ntp11211
(g8
Ntp11212
(g10
Ntp11213
g10
tp11214
Ntp11215
F1.0
saI1401
aa(lp11216
(dp11217
(((g3
g4
tp11218
(g6
Ntp11219
(g8
Ntp11220
(g10
Ntp11221
g10
tp11222
Ntp11223
F1.0
saI1402
aa(lp11224
(dp11225
(((g3
g41
tp11226
(g6
Ntp11227
(g8
Ntp11228
(g10
Ntp11229
g10
tp11230
g10
tp11231
F5.131894860778852
saI1403
aa(lp11232
(dp11233
(((g3
g41
tp11234
(g6
Ntp11235
(g8
Ntp11236
(g10
Ntp11237
g8
tp11238
g8
tp11239
F2.0492619265477283
saI1404
aa(lp11240
(dp11241
(((g3
g4
tp11242
(g6
Ntp11243
(g8
Ntp11244
(g10
Ntp11245
g8
tp11246
g8
tp11247
F2.546329399510746
saI1405
aa(lp11248
(dp11249
(((g3
g41
tp11250
(g6
g8
tp11251
(g8
Ntp11252
(g10
Ntp11253
g10
tp11254
Ntp11255
I1
saI1406
aa(lp11256
(dp11257
(((g3
g41
tp11258
(g6
Ntp11259
(g8
Ntp11260
(g10
Ntp11261
g10
tp11262
g10
tp11263
F4.662110631662024
saI1407
aa(lp11264
(dp11265
(((g3
g4
tp11266
(g6
Ntp11267
(g8
Ntp11268
(g10
Ntp11269
g8
tp11270
g8
tp11271
F2.464379989584134
saI1408
aa(lp11272
(dp11273
(((g3
g41
tp11274
(g6
Ntp11275
(g8
Ntp11276
(g10
Ntp11277
g10
tp11278
g10
tp11279
F4.26279403691272
saI1409
aa(lp11280
(dp11281
(((g3
g41
tp11282
(g6
Ntp11283
(g8
Ntp11284
(g10
Ntp11285
g21
tp11286
g21
tp11287
F5.773073520841302
saI1410
aa(lp11288
(dp11289
(((g3
g4
tp11290
(g6
Ntp11291
(g8
Ntp11292
(g10
Ntp11293
g8
tp11294
g8
tp11295
F2.394722991146514
saI1411
aa(lp11296
(dp11297
(((g3
g41
tp11298
(g6
Ntp11299
(g8
Ntp11300
(g10
Ntp11301
g8
tp11302
g8
tp11303
F2.041872637565569
saI1412
aa(lp11304
(dp11305
(((g3
g41
tp11306
(g6
Ntp11307
(g8
Ntp11308
(g10
Ntp11309
g10
tp11310
g10
tp11311
F3.9233749313758124
saI1413
aa(lp11312
(dp11313
(((g3
g4
tp11314
(g6
Ntp11315
(g8
Ntp11316
(g10
Ntp11317
g8
tp11318
g8
tp11319
F2.3355145424745367
saI1414
aa(lp11320
(dp11321
(((g3
g41
tp11322
(g6
Ntp11323
(g8
Ntp11324
(g10
Ntp11325
g10
tp11326
g8
tp11327
F1.5276966953088436
saI1415
aa(lp11328
(dp11329
(((g3
g41
tp11330
(g6
Ntp11331
(g8
Ntp11332
(g10
Ntp11333
g21
tp11334
g21
tp11335
F5.2071124927151065
saI1416
aa(lp11336
(dp11337
(((g3
g41
tp11338
(g6
g8
tp11339
(g8
Ntp11340
(g10
Ntp11341
g21
tp11342
Ntp11343
F1.0
saI1417
aa(lp11344
(dp11345
(((g3
g41
tp11346
(g6
Ntp11347
(g8
Ntp11348
(g10
Ntp11349
g21
tp11350
g21
tp11351
F4.726045618807841
saI1418
aa(lp11352
(dp11353
(((g3
g4
tp11354
(g6
Ntp11355
(g8
Ntp11356
(g10
Ntp11357
g21
tp11358
Ntp11359
F1.0
saI1419
aa(lp11360
(dp11361
(((g3
g4
tp11362
(g6
Ntp11363
(g8
Ntp11364
(g10
Ntp11365
g21
tp11366
Ntp11367
F1.0
saI1420
aa(lp11368
(dp11369
(((g3
g4
tp11370
(g6
Ntp11371
(g8
Ntp11372
(g10
Ntp11373
g21
tp11374
Ntp11375
F1.0
saI1421
aa(lp11376
(dp11377
(((g3
g4
tp11378
(g6
Ntp11379
(g8
Ntp11380
(g10
Ntp11381
g21
tp11382
Ntp11383
F1.0
saI1422
aa(lp11384
(dp11385
(((g3
g41
tp11386
(g6
Ntp11387
(g8
Ntp11388
(g10
Ntp11389
g21
tp11390
g21
tp11391
F4.317138775986664
saI1423
aa(lp11392
(dp11393
(((g3
g41
tp11394
(g6
Ntp11395
(g8
Ntp11396
(g10
g10
tp11397
g21
tp11398
g10
tp11399
F0.5
saI1424
aa(lp11400
(dp11401
(((g3
g41
tp11402
(g6
Ntp11403
(g8
Ntp11404
(g10
Ntp11405
g10
tp11406
g10
tp11407
F3.6348686916694404
saI1425
aa(lp11408
(dp11409
(((g3
g4
tp11410
(g6
Ntp11411
(g8
Ntp11412
(g10
Ntp11413
g8
tp11414
g8
tp11415
F2.285187361103356
saI1426
aa(lp11416
(dp11417
(((g3
g41
tp11418
(g6
Ntp11419
(g8
Ntp11420
(g10
Ntp11421
g10
tp11422
g10
tp11423
F3.389638387919024
saI1427
aa(lp11424
(dp11425
(((g3
g41
tp11426
(g6
Ntp11427
(g8
Ntp11428
(g10
Ntp11429
g8
tp11430
g8
tp11431
F2.0355917419307334
saI1428
aa(lp11432
(dp11433
(((g3
g41
tp11434
(g6
Ntp11435
(g8
Ntp11436
(g10
Ntp11437
g10
tp11438
g10
tp11439
F3.1811926297311706
saI1429
aa(lp11440
(dp11441
(((g3
g41
tp11442
(g6
Ntp11443
(g8
Ntp11444
(g10
Ntp11445
g8
tp11446
g8
tp11447
F2.0302529806411234
saI1430
aa(lp11448
(dp11449
(((g3
g4
tp11450
(g6
Ntp11451
(g8
Ntp11452
(g10
Ntp11453
g10
tp11454
Ntp11455
F1.0
saI1431
aa(lp11456
(dp11457
(((g3
g4
tp11458
(g6
Ntp11459
(g8
Ntp11460
(g10
g21
tp11461
g10
tp11462
Ntp11463
I1
saI1432
aa(lp11464
(dp11465
(((g3
g4
tp11466
(g6
Ntp11467
(g8
Ntp11468
(g10
Ntp11469
g10
tp11470
Ntp11471
F1.0
saI1433
aa(lp11472
(dp11473
(((g3
g4
tp11474
(g6
Ntp11475
(g8
Ntp11476
(g10
Ntp11477
g10
tp11478
Ntp11479
F1.0
saI1434
aa(lp11480
(dp11481
(((g3
g4
tp11482
(g6
Ntp11483
(g8
Ntp11484
(g10
Ntp11485
g10
tp11486
Ntp11487
F1.0
saI1435
aa(lp11488
(dp11489
(((g3
g41
tp11490
(g6
Ntp11491
(g8
Ntp11492
(g10
Ntp11493
g10
tp11494
g10
tp11495
F3.004013735271495
saI1436
aa(lp11496
(dp11497
(((g3
g4
tp11498
(g6
Ntp11499
(g8
Ntp11500
(g10
Ntp11501
g8
tp11502
g8
tp11503
F2.2424092569378526
saI1437
aa(lp11504
(dp11505
(((g3
g4
tp11506
(g6
Ntp11507
(g8
Ntp11508
(g10
Ntp11509
g10
tp11510
Ntp11511
F1.0
saI1438
aa(lp11512
(dp11513
(((g3
g4
tp11514
(g6
Ntp11515
(g8
Ntp11516
(g10
Ntp11517
g10
tp11518
Ntp11519
F1.0
saI1439
aa(lp11520
(dp11521
(((g3
g4
tp11522
(g6
Ntp11523
(g8
Ntp11524
(g10
Ntp11525
g10
tp11526
Ntp11527
F1.0
saI1440
aa(lp11528
(dp11529
(((g3
g41
tp11530
(g6
Ntp11531
(g8
Ntp11532
(g10
Ntp11533
g10
tp11534
g10
tp11535
F2.8534116749807708
saI1441
aa(lp11536
(dp11537
(((g3
g4
tp11538
(g6
Ntp11539
(g8
Ntp11540
(g10
Ntp11541
g10
tp11542
Ntp11543
F1.0
saI1442
aa(lp11544
(dp11545
(((g3
g41
tp11546
(g6
Ntp11547
(g8
Ntp11548
(g10
Ntp11549
g10
tp11550
g10
tp11551
F2.7253999237336552
saI1443
aa(lp11552
(dp11553
(((g3
g41
tp11554
(g6
Ntp11555
(g8
Ntp11556
(g10
Ntp11557
g21
tp11558
g21
tp11559
F3.9695679595886646
saI1444
aa(lp11560
(dp11561
(((g3
g4
tp11562
(g6
Ntp11563
(g8
Ntp11564
(g10
Ntp11565
g21
tp11566
Ntp11567
F1.0
saI1445
aa(lp11568
(dp11569
(((g3
g41
tp11570
(g6
Ntp11571
(g8
Ntp11572
(g10
Ntp11573
g21
tp11574
g21
tp11575
F5.174132765650365
saI1446
aa(lp11576
(dp11577
(((g3
g4
tp11578
(g6
Ntp11579
(g8
Ntp11580
(g10
Ntp11581
g10
tp11582
Ntp11583
F1.0
saI1447
aa(lp11584
(dp11585
(((g3
g4
tp11586
(g6
Ntp11587
(g8
Ntp11588
(g10
Ntp11589
g10
tp11590
Ntp11591
F1.0
saI1448
aa(lp11592
(dp11593
(((g3
g4
tp11594
(g6
Ntp11595
(g8
Ntp11596
(g10
Ntp11597
g10
tp11598
Ntp11599
F1.0
saI1449
aa(lp11600
(dp11601
(((g3
g4
tp11602
(g6
Ntp11603
(g8
Ntp11604
(g10
Ntp11605
g10
tp11606
g10
tp11607
F-1.0
saI1450
aa(lp11608
(dp11609
(((g3
g41
tp11610
(g6
Ntp11611
(g8
Ntp11612
(g10
Ntp11613
g10
tp11614
g10
tp11615
F2.616589935173607
saI1451
aa(lp11616
(dp11617
(((g3
g41
tp11618
(g6
Ntp11619
(g8
Ntp11620
(g10
Ntp11621
g21
tp11622
g21
tp11623
F4.69801285080281
saI1452
aa(lp11624
(dp11625
(((g3
g4
tp11626
(g6
Ntp11627
(g8
Ntp11628
(g10
Ntp11629
g21
tp11630
Ntp11631
F1.0
saI1453
aa(lp11632
(dp11633
(((g3
g4
tp11634
(g6
Ntp11635
(g8
Ntp11636
(g10
Ntp11637
g21
tp11638
Ntp11639
F1.0
saI1454
aa(lp11640
(dp11641
(((g3
g4
tp11642
(g6
Ntp11643
(g8
Ntp11644
(g10
Ntp11645
g21
tp11646
Ntp11647
F1.0
saI1455
aa(lp11648
(dp11649
(((g3
g4
tp11650
(g6
Ntp11651
(g8
Ntp11652
(g10
Ntp11653
g21
tp11654
Ntp11655
F1.0
saI1456
aa(lp11656
(dp11657
(((g3
g41
tp11658
(g6
Ntp11659
(g8
Ntp11660
(g10
Ntp11661
g21
tp11662
g21
tp11663
F4.293310923182388
saI1457
aa(lp11664
(dp11665
(((g3
g41
tp11666
(g6
Ntp11667
(g8
Ntp11668
(g10
Ntp11669
g21
tp11670
g21
tp11671
F5.44931428470503
saI1458
aa(lp11672
(dp11673
(((g3
g4
tp11674
(g6
Ntp11675
(g8
Ntp11676
(g10
Ntp11677
g8
tp11678
g8
tp11679
F2.206047868397175
saI1459
aa(lp11680
(dp11681
(((g3
g4
tp11682
(g6
Ntp11683
(g8
Ntp11684
(g10
Ntp11685
g8
tp11686
g8
tp11687
F2.1751406881375988
saI1460
aa(lp11688
(dp11689
(((g3
g41
tp11690
(g6
Ntp11691
(g8
Ntp11692
(g10
Ntp11693
g10
tp11694
g21
tp11695
F0.5
saI1461
aa(lp11696
(dp11697
(((g3
g41
tp11698
(g6
Ntp11699
(g8
Ntp11700
(g10
Ntp11701
g10
tp11702
g10
tp11703
F2.524101444897566
saI1462
aa(lp11704
(dp11705
(((g3
g4
tp11706
(g6
Ntp11707
(g8
Ntp11708
(g10
Ntp11709
g8
tp11710
g10
tp11711
F-1.0
saI1463
aa(lp11712
(dp11713
(((g3
g41
tp11714
(g6
Ntp11715
(g8
Ntp11716
(g10
Ntp11717
g8
tp11718
g8
tp11719
F2.0257150335449547
saI1464
aa(lp11720
(dp11721
(((g3
g4
tp11722
(g6
Ntp11723
(g8
Ntp11724
(g10
Ntp11725
g10
tp11726
g8
tp11727
F0.5
saI1465
aa(lp11728
(dp11729
(((g3
g4
tp11730
(g6
Ntp11731
(g8
Ntp11732
(g10
Ntp11733
g21
tp11734
Ntp11735
F1.0
saI1466
aa(lp11736
(dp11737
(((g3
g4
tp11738
(g6
Ntp11739
(g8
Ntp11740
(g10
Ntp11741
g21
tp11742
Ntp11743
F1.0
saI1467
aa(lp11744
(dp11745
(((g3
g41
tp11746
(g6
Ntp11747
(g8
Ntp11748
(g10
Ntp11749
g21
tp11750
g21
tp11751
F4.931917141999276
saI1468
aa(lp11752
(dp11753
(((g3
g4
tp11754
(g6
Ntp11755
(g8
Ntp11756
(g10
Ntp11757
g21
tp11758
Ntp11759
F1.0
saI1469
aa(lp11760
(dp11761
(((g3
g4
tp11762
(g6
Ntp11763
(g8
Ntp11764
(g10
Ntp11765
g21
tp11766
Ntp11767
F1.0
saI1470
aa(lp11768
(dp11769
(((g3
g4
tp11770
(g6
Ntp11771
(g8
Ntp11772
(g10
Ntp11773
g21
tp11774
Ntp11775
F1.0
saI1471
aa(lp11776
(dp11777
(((g3
g4
tp11778
(g6
Ntp11779
(g8
Ntp11780
(g10
Ntp11781
g21
tp11782
Ntp11783
F1.0
saI1472
aa(lp11784
(dp11785
(((g3
g4
tp11786
(g6
Ntp11787
(g8
Ntp11788
(g10
Ntp11789
g21
tp11790
Ntp11791
F1.0
saI1473
aa(lp11792
(dp11793
(((g3
g41
tp11794
(g6
Ntp11795
(g8
Ntp11796
(g10
Ntp11797
g21
tp11798
g21
tp11799
F4.492129570699384
saI1474
aa(lp11800
(dp11801
(((g3
g41
tp11802
(g6
Ntp11803
(g8
Ntp11804
(g10
Ntp11805
g21
tp11806
g21
tp11807
F4.118310135094476
saI1475
aa(lp11808
(dp11809
(((g3
g41
tp11810
(g6
Ntp11811
(g8
Ntp11812
(g10
Ntp11813
g21
tp11814
g21
tp11815
F5.300563614830304
saI1476
aa(lp11816
(dp11817
(((g3
g41
tp11818
(g6
Ntp11819
(g8
Ntp11820
(g10
Ntp11821
g10
tp11822
g21
tp11823
F0.5
saI1477
aa(lp11824
(dp11825
(((g3
g4
tp11826
(g6
Ntp11827
(g8
Ntp11828
(g10
Ntp11829
g10
tp11830
Ntp11831
F1.0
saI1478
aa(lp11832
(dp11833
(((g3
g4
tp11834
(g6
Ntp11835
(g8
Ntp11836
(g10
Ntp11837
g10
tp11838
Ntp11839
F1.0
saI1479
aa(lp11840
(dp11841
(((g3
g4
tp11842
(g6
Ntp11843
(g8
Ntp11844
(g10
Ntp11845
g10
tp11846
Ntp11847
F1.0
saI1480
aa(lp11848
(dp11849
(((g3
g4
tp11850
(g6
Ntp11851
(g8
Ntp11852
(g10
Ntp11853
g10
tp11854
Ntp11855
F1.0
saI1481
aa(lp11856
(dp11857
(((g3
g41
tp11858
(g6
Ntp11859
(g8
Ntp11860
(g10
Ntp11861
g10
tp11862
g10
tp11863
F2.445486228162931
saI1482
aa(lp11864
(dp11865
(((g3
g4
tp11866
(g6
Ntp11867
(g8
Ntp11868
(g10
Ntp11869
g8
tp11870
g8
tp11871
F2.148869584916959
saI1483
aa(lp11872
(dp11873
(((g3
g41
tp11874
(g6
Ntp11875
(g8
Ntp11876
(g10
Ntp11877
g10
tp11878
g10
tp11879
F2.3786632939384913
saI1484
aa(lp11880
(dp11881
(((g3
g4
tp11882
(g6
Ntp11883
(g8
Ntp11884
(g10
Ntp11885
g8
tp11886
g8
tp11887
F2.126539147179415
saI1485
aa(lp11888
(dp11889
(((g3
g41
tp11890
(g6
Ntp11891
(g8
Ntp11892
(g10
Ntp11893
g10
tp11894
g10
tp11895
F2.3218637998477174
saI1486
aa(lp11896
(dp11897
(((g3
g41
tp11898
(g6
Ntp11899
(g8
Ntp11900
(g10
Ntp11901
g21
tp11902
g21
tp11903
F4.805479072605759
saI1487
aa(lp11904
(dp11905
(((g3
g4
tp11906
(g6
Ntp11907
(g8
Ntp11908
(g10
Ntp11909
g8
tp11910
g8
tp11911
F3.6075582751025026
saI1488
aa(lp11912
(dp11913
(((g3
g41
tp11914
(g6
Ntp11915
(g8
Ntp11916
(g10
Ntp11917
g8
tp11918
g8
tp11919
F2.0218577785132115
saI1489
aa(lp11920
(dp11921
(((g3
g4
tp11922
(g6
Ntp11923
(g8
Ntp11924
(g10
Ntp11925
g8
tp11926
g8
tp11927
F3.3664245338371273
saI1490
aa(lp11928
(dp11929
(((g3
g4
tp11930
(g6
Ntp11931
(g8
Ntp11932
(g10
Ntp11933
g10
tp11934
Ntp11935
F1.0
saI1491
aa(lp11936
(dp11937
(((g3
g4
tp11938
(g6
Ntp11939
(g8
Ntp11940
(g10
Ntp11941
g10
tp11942
Ntp11943
F1.0
saI1492
aa(lp11944
(dp11945
(((g3
g41
tp11946
(g6
Ntp11947
(g8
Ntp11948
(g10
Ntp11949
g10
tp11950
g10
tp11951
F2.27358422987056
saI1493
aa(lp11952
(dp11953
(((g3
g41
tp11954
(g6
Ntp11955
(g8
Ntp11956
(g10
Ntp11957
g21
tp11958
g21
tp11959
F4.384657211714895
saI1494
aa(lp11960
(dp11961
(((g3
g4
tp11962
(g6
Ntp11963
(g8
Ntp11964
(g10
Ntp11965
g21
tp11966
Ntp11967
F1.0
saI1495
aa(lp11968
(dp11969
(((g3
g4
tp11970
(g6
Ntp11971
(g8
Ntp11972
(g10
Ntp11973
g21
tp11974
Ntp11975
F1.0
saI1496
aa(lp11976
(dp11977
(((g3
g4
tp11978
(g6
Ntp11979
(g8
Ntp11980
(g10
Ntp11981
g21
tp11982
Ntp11983
F1.0
saI1497
aa(lp11984
(dp11985
(((g3
g4
tp11986
(g6
Ntp11987
(g8
Ntp11988
(g10
Ntp11989
g21
tp11990
Ntp11991
F1.0
saI1498
aa(lp11992
(dp11993
(((g3
g41
tp11994
(g6
Ntp11995
(g8
Ntp11996
(g10
Ntp11997
g21
tp11998
g21
tp11999
F4.026958629957661
saI1499
aa(lp12000
(dp12001
(((g3
g4
tp12002
(g6
Ntp12003
(g8
Ntp12004
(g10
Ntp12005
g8
tp12006
g8
tp12007
F3.1614608537615583
saI1500
aa(lp12008
(dp12009
(((g3
g4
tp12010
(g6
Ntp12011
(g8
Ntp12012
(g10
Ntp12013
g21
tp12014
Ntp12015
F1.0
saI1501
aa(lp12016
(dp12017
(((g3
g4
tp12018
(g6
Ntp12019
(g8
Ntp12020
(g10
Ntp12021
g21
tp12022
Ntp12023
F1.0
saI1502
aa(lp12024
(dp12025
(((g3
g4
tp12026
(g6
Ntp12027
(g8
Ntp12028
(g10
Ntp12029
g21
tp12030
Ntp12031
F1.0
saI1503
aa(lp12032
(dp12033
(((g3
g41
tp12034
(g6
Ntp12035
(g8
Ntp12036
(g10
Ntp12037
g21
tp12038
g21
tp12039
F3.7229148354640116
saI1504
aa(lp12040
(dp12041
(((g3
g41
tp12042
(g6
Ntp12043
(g8
Ntp12044
(g10
Ntp12045
g21
tp12046
g21
tp12047
F4.96447761014441
saI1505
aa(lp12048
(dp12049
(((g3
g4
tp12050
(g6
Ntp12051
(g8
Ntp12052
(g10
Ntp12053
g8
tp12054
g8
tp12055
F2.9872417256973245
saI1506
aa(lp12056
(dp12057
(((g3
g4
tp12058
(g6
Ntp12059
(g8
Ntp12060
(g10
Ntp12061
g10
tp12062
Ntp12063
F1.0
saI1507
aa(lp12064
(dp12065
(((g3
g4
tp12066
(g6
Ntp12067
(g8
Ntp12068
(g10
Ntp12069
g10
tp12070
Ntp12071
F1.0
saI1508
aa(lp12072
(dp12073
(((g3
g41
tp12074
(g6
Ntp12075
(g8
Ntp12076
(g10
Ntp12077
g10
tp12078
g10
tp12079
F2.232546595389976
saI1509
aa(lp12080
(dp12081
(((g3
g4
tp12082
(g6
Ntp12083
(g8
Ntp12084
(g10
Ntp12085
g8
tp12086
g8
tp12087
F2.8391554668427257
saI1510
aa(lp12088
(dp12089
(((g3
g41
tp12090
(g6
Ntp12091
(g8
Ntp12092
(g10
Ntp12093
g10
tp12094
g10
tp12095
F2.1976646060814797
saI1511
aa(lp12096
(dp12097
(((g3
g41
tp12098
(g6
Ntp12099
(g8
Ntp12100
(g10
Ntp12101
g8
tp12102
Ntp12103
F1.0
saI1512
aa(lp12104
(dp12105
(((g3
g41
tp12106
(g6
Ntp12107
(g8
Ntp12108
(g10
Ntp12109
g8
tp12110
g8
tp12111
F2.01857911173623
saI1513
aa(lp12112
(dp12113
(((g3
g4
tp12114
(g6
Ntp12115
(g8
Ntp12116
(g10
Ntp12117
g10
tp12118
Ntp12119
F1.0
saI1514
aa(lp12120
(dp12121
(((g3
g41
tp12122
(g6
Ntp12123
(g8
Ntp12124
(g10
Ntp12125
g10
tp12126
g10
tp12127
F2.1680149151692576
saI1515
aa(lp12128
(dp12129
(((g3
g41
tp12130
(g6
Ntp12131
(g8
Ntp12132
(g10
Ntp12133
g8
tp12134
g8
tp12135
F2.0157922449757955
saI1516
aa(lp12136
(dp12137
(((g3
g4
tp12138
(g6
Ntp12139
(g8
Ntp12140
(g10
Ntp12141
g10
tp12142
Ntp12143
F1.0
saI1517
aa(lp12144
(dp12145
(((g3
g4
tp12146
(g6
Ntp12147
(g8
Ntp12148
(g10
Ntp12149
g10
tp12150
g8
tp12151
F0.5
saI1518
aa(lp12152
(dp12153
(((g3
g41
tp12154
(g6
Ntp12155
(g8
Ntp12156
(g10
Ntp12157
g21
tp12158
g21
tp12159
F4.519805968622749
saI1519
aa(lp12160
(dp12161
(((g3
g41
tp12162
(g6
Ntp12163
(g8
Ntp12164
(g10
g10
tp12165
g21
tp12166
g8
tp12167
F0.5
saI1520
aa(lp12168
(dp12169
(((g3
g4
tp12170
(g6
Ntp12171
(g8
Ntp12172
(g10
Ntp12173
g8
tp12174
g8
tp12175
F2.713282146816317
saI1521
aa(lp12176
(dp12177
(((g3
g4
tp12178
(g6
Ntp12179
(g8
Ntp12180
(g10
Ntp12181
g8
tp12182
g8
tp12183
F2.6062898247938695
saI1522
aa(lp12184
(dp12185
(((g3
g41
tp12186
(g6
Ntp12187
(g8
Ntp12188
(g10
Ntp12189
g10
tp12190
g10
tp12191
F2.1428126778938688
saI1523
aa(lp12192
(dp12193
(((g3
g4
tp12194
(g6
Ntp12195
(g8
Ntp12196
(g10
Ntp12197
g8
tp12198
g8
tp12199
F2.515346351074789
saI1524
aa(lp12200
(dp12201
(((g3
g4
tp12202
(g6
Ntp12203
(g8
Ntp12204
(g10
Ntp12205
g10
tp12206
Ntp12207
F1.0
saI1525
aa(lp12208
(dp12209
(((g3
g41
tp12210
(g6
Ntp12211
(g8
Ntp12212
(g10
Ntp12213
g10
tp12214
g10
tp12215
F2.1213907762097883
saI1526
aa(lp12216
(dp12217
(((g3
g41
tp12218
(g6
Ntp12219
(g8
Ntp12220
(g10
Ntp12221
g21
tp12222
g21
tp12223
F4.141835073329337
saI1527
aa(lp12224
(dp12225
(((g3
g4
tp12226
(g6
Ntp12227
(g8
Ntp12228
(g10
Ntp12229
g8
tp12230
g8
tp12231
F2.4380443984135707
saI1528
aa(lp12232
(dp12233
(((g3
g41
tp12234
(g6
Ntp12235
(g8
Ntp12236
(g10
Ntp12237
g21
tp12238
g21
tp12239
F3.820559812329936
saI1529
aa(lp12240
(dp12241
(((g3
g4
tp12242
(g6
Ntp12243
(g8
Ntp12244
(g10
Ntp12245
g21
tp12246
Ntp12247
F1.0
saI1530
aa(lp12248
(dp12249
(((g3
g4
tp12250
(g6
Ntp12251
(g8
Ntp12252
(g10
Ntp12253
g21
tp12254
Ntp12255
F1.0
saI1531
aa(lp12256
(dp12257
(((g3
g4
tp12258
(g6
Ntp12259
(g8
Ntp12260
(g10
Ntp12261
g21
tp12262
Ntp12263
F1.0
saI1532
aa(lp12264
(dp12265
(((g3
g4
tp12266
(g6
Ntp12267
(g8
Ntp12268
(g10
Ntp12269
g21
tp12270
Ntp12271
F1.0
saI1533
aa(lp12272
(dp12273
(((g3
g41
tp12274
(g6
Ntp12275
(g8
Ntp12276
(g10
Ntp12277
g21
tp12278
g21
tp12279
F3.5474758404804456
saI1534
aa(lp12280
(dp12281
(((g3
g41
tp12282
(g6
Ntp12283
(g8
Ntp12284
(g10
Ntp12285
g21
tp12286
g21
tp12287
F4.8153544644083786
saI1535
aa(lp12288
(dp12289
(((g3
g41
tp12290
(g6
Ntp12291
(g8
Ntp12292
(g10
Ntp12293
g21
tp12294
g10
tp12295
F0.5
saI1536
aa(lp12296
(dp12297
(((g3
g4
tp12298
(g6
Ntp12299
(g8
Ntp12300
(g10
Ntp12301
g10
tp12302
Ntp12303
F1.0
saI1537
aa(lp12304
(dp12305
(((g3
g4
tp12306
(g6
Ntp12307
(g8
Ntp12308
(g10
Ntp12309
g10
tp12310
Ntp12311
F1.0
saI1538
aa(lp12312
(dp12313
(((g3
g4
tp12314
(g6
Ntp12315
(g8
Ntp12316
(g10
Ntp12317
g10
tp12318
Ntp12319
F1.0
saI1539
aa(lp12320
(dp12321
(((g3
g41
tp12322
(g6
Ntp12323
(g8
Ntp12324
(g10
Ntp12325
g10
tp12326
g10
tp12327
F2.1031821597783202
saI1540
aa(lp12328
(dp12329
(((g3
g41
tp12330
(g6
Ntp12331
(g8
Ntp12332
(g10
Ntp12333
g8
tp12334
g8
tp12335
F2.0134234082294262
saI1541
aa(lp12336
(dp12337
(((g3
g41
tp12338
(g6
Ntp12339
(g8
Ntp12340
(g10
Ntp12341
g10
tp12342
g10
tp12343
F2.0877048358115724
saI1542
aa(lp12344
(dp12345
(((g3
g41
tp12346
(g6
Ntp12347
(g8
Ntp12348
(g10
Ntp12349
g8
tp12350
g8
tp12351
F2.0114098969950125
saI1543
aa(lp12352
(dp12353
(((g3
g41
tp12354
(g6
Ntp12355
(g8
Ntp12356
(g10
Ntp12357
g10
tp12358
g10
tp12359
F2.0745491104398366
saI1544
aa(lp12360
(dp12361
(((g3
g41
tp12362
(g6
Ntp12363
(g8
Ntp12364
(g10
Ntp12365
g8
tp12366
g8
tp12367
F2.0096984124457604
saI1545
aa(lp12368
(dp12369
(((g3
g41
tp12370
(g6
Ntp12371
(g8
Ntp12372
(g10
Ntp12373
g10
tp12374
g10
tp12375
F2.063366743873861
saI1546
aa(lp12376
(dp12377
(((g3
g4
tp12378
(g6
Ntp12379
(g8
Ntp12380
(g10
Ntp12381
g21
tp12382
Ntp12383
F1.0
saI1547
aa(lp12384
(dp12385
(((g3
g41
tp12386
(g6
Ntp12387
(g8
Ntp12388
(g10
Ntp12389
g21
tp12390
g21
tp12391
F4.393051294747122
saI1548
aa(lp12392
(dp12393
(((g3
g4
tp12394
(g6
Ntp12395
(g8
Ntp12396
(g10
Ntp12397
g21
tp12398
Ntp12399
F1.0
saI1549
aa(lp12400
(dp12401
(((g3
g4
tp12402
(g6
Ntp12403
(g8
Ntp12404
(g10
Ntp12405
g21
tp12406
Ntp12407
F1.0
saI1550
aa(lp12408
(dp12409
(((g3
g41
tp12410
(g6
Ntp12411
(g8
Ntp12412
(g10
Ntp12413
g21
tp12414
g21
tp12415
F4.034093600535053
saI1551
aa(lp12416
(dp12417
(((g3
g41
tp12418
(g6
Ntp12419
(g8
Ntp12420
(g10
Ntp12421
g10
tp12422
g10
tp12423
F2.053861732292782
saI1552
aa(lp12424
(dp12425
(((g3
g41
tp12426
(g6
Ntp12427
(g8
Ntp12428
(g10
Ntp12429
g21
tp12430
g21
tp12431
F5.228979560454795
saI1553
aa(lp12432
(dp12433
(((g3
g41
tp12434
(g6
Ntp12435
(g8
Ntp12436
(g10
Ntp12437
g10
tp12438
g10
tp12439
F2.0457824724488645
saI1554
aa(lp12440
(dp12441
(((g3
g41
tp12442
(g6
Ntp12443
(g8
Ntp12444
(g10
g10
tp12445
g8
tp12446
g10
tp12447
F0.5
saI1555
aa(lp12448
(dp12449
(((g3
g41
tp12450
(g6
Ntp12451
(g8
Ntp12452
(g10
Ntp12453
g8
tp12454
g8
tp12455
F2.0082436505788963
saI1556
aa(lp12456
(dp12457
(((g3
g41
tp12458
(g6
Ntp12459
(g8
Ntp12460
(g10
Ntp12461
g21
tp12462
g21
tp12463
F4.744632626386576
saI1557
aa(lp12464
(dp12465
(((g3
g4
tp12466
(g6
Ntp12467
(g8
Ntp12468
(g10
Ntp12469
g10
tp12470
Ntp12471
F1.0
saI1558
aa(lp12472
(dp12473
(((g3
g41
tp12474
(g6
Ntp12475
(g8
Ntp12476
(g10
Ntp12477
g10
tp12478
g10
tp12479
F3.5389151015815346
saI1559
aa(lp12480
(dp12481
(((g3
g4
tp12482
(g6
Ntp12483
(g8
Ntp12484
(g10
Ntp12485
g21
tp12486
Ntp12487
F1.0
saI1560
aa(lp12488
(dp12489
(((g3
g4
tp12490
(g6
Ntp12491
(g8
Ntp12492
(g10
Ntp12493
g21
tp12494
Ntp12495
F1.0
saI1561
aa(lp12496
(dp12497
(((g3
g4
tp12498
(g6
Ntp12499
(g8
Ntp12500
(g10
g10
tp12501
g21
tp12502
g8
tp12503
F0.5
saI1562
aa(lp12504
(dp12505
(((g3
g4
tp12506
(g6
Ntp12507
(g8
Ntp12508
(g10
Ntp12509
g8
tp12510
g8
tp12511
F2.372337738651535
saI1563
aa(lp12512
(dp12513
(((g3
g41
tp12514
(g6
Ntp12515
(g8
Ntp12516
(g10
Ntp12517
g10
tp12518
g10
tp12519
F4.808077836344305
saI1564
aa(lp12520
(dp12521
(((g3
g41
tp12522
(g6
Ntp12523
(g8
Ntp12524
(g10
Ntp12525
g8
tp12526
g8
tp12527
F2.0070071029920618
saI1565
aa(lp12528
(dp12529
(((g3
g41
tp12530
(g6
Ntp12531
(g8
Ntp12532
(g10
Ntp12533
g10
tp12534
g10
tp12535
F4.386866160892659
saI1566
aa(lp12536
(dp12537
(((g3
g4
tp12538
(g6
Ntp12539
(g8
Ntp12540
(g10
Ntp12541
g8
tp12542
g8
tp12543
F2.3164870778538047
saI1567
aa(lp12544
(dp12545
(((g3
g4
tp12546
(g6
Ntp12547
(g8
Ntp12548
(g10
Ntp12549
g10
tp12550
Ntp12551
F1.0
saI1568
aa(lp12552
(dp12553
(((g3
g4
tp12554
(g6
Ntp12555
(g8
Ntp12556
(g10
Ntp12557
g10
tp12558
Ntp12559
F1.0
saI1569
aa(lp12560
(dp12561
(((g3
g41
tp12562
(g6
Ntp12563
(g8
Ntp12564
(g10
Ntp12565
g10
tp12566
g10
tp12567
F4.02883623675876
saI1570
aa(lp12568
(dp12569
(((g3
g4
tp12570
(g6
Ntp12571
(g8
Ntp12572
(g10
Ntp12573
g8
tp12574
g8
tp12575
F2.269014016175734
saI1571
aa(lp12576
(dp12577
(((g3
g4
tp12578
(g6
Ntp12579
(g8
Ntp12580
(g10
Ntp12581
g10
tp12582
Ntp12583
F1.0
saI1572
aa(lp12584
(dp12585
(((g3
g4
tp12586
(g6
Ntp12587
(g8
Ntp12588
(g10
Ntp12589
g10
tp12590
Ntp12591
F1.0
saI1573
aa(lp12592
(dp12593
(((g3
g41
tp12594
(g6
Ntp12595
(g8
Ntp12596
(g10
Ntp12597
g10
tp12598
g10
tp12599
F3.7245108012449464
saI1574
aa(lp12600
(dp12601
(((g3
g4
tp12602
(g6
Ntp12603
(g8
Ntp12604
(g10
Ntp12605
g8
tp12606
g8
tp12607
F2.2286619137493737
saI1575
aa(lp12608
(dp12609
(((g3
g4
tp12610
(g6
g21
tp12611
(g8
Ntp12612
(g10
Ntp12613
g10
tp12614
g8
tp12615
F0.5
saI1576
aa(lp12616
(dp12617
(((g3
g41
tp12618
(g6
Ntp12619
(g8
Ntp12620
(g10
Ntp12621
g21
tp12622
g21
tp12623
F4.332937732428589
saI1577
aa(lp12624
(dp12625
(((g3
g41
tp12626
(g6
Ntp12627
(g8
Ntp12628
(g10
Ntp12629
g21
tp12630
g21
tp12631
F3.982997072564301
saI1578
aa(lp12632
(dp12633
(((g3
g4
tp12634
(g6
Ntp12635
(g8
Ntp12636
(g10
Ntp12637
g21
tp12638
Ntp12639
F1.0
saI1579
aa(lp12640
(dp12641
(((g3
g4
tp12642
(g6
Ntp12643
(g8
Ntp12644
(g10
Ntp12645
g21
tp12646
Ntp12647
F1.0
saI1580
aa(lp12648
(dp12649
(((g3
g41
tp12650
(g6
Ntp12651
(g8
Ntp12652
(g10
Ntp12653
g21
tp12654
g21
tp12655
F5.185547511679656
saI1581
aa(lp12656
(dp12657
(((g3
g41
tp12658
(g6
Ntp12659
(g8
Ntp12660
(g10
Ntp12661
g21
tp12662
g21
tp12663
F4.707715384927708
saI1582
aa(lp12664
(dp12665
(((g3
g4
tp12666
(g6
Ntp12667
(g8
Ntp12668
(g10
Ntp12669
g21
tp12670
Ntp12671
F1.0
saI1583
aa(lp12672
(dp12673
(((g3
g4
tp12674
(g6
Ntp12675
(g8
Ntp12676
(g10
Ntp12677
g21
tp12678
Ntp12679
F1.0
saI1584
aa(lp12680
(dp12681
(((g3
g41
tp12682
(g6
Ntp12683
(g8
Ntp12684
(g10
Ntp12685
g21
tp12686
g21
tp12687
F4.3015580771885515
saI1585
aa(lp12688
(dp12689
(((g3
g4
tp12690
(g6
Ntp12691
(g8
Ntp12692
(g10
Ntp12693
g21
tp12694
Ntp12695
F1.0
saI1586
aa(lp12696
(dp12697
(((g3
g41
tp12698
(g6
Ntp12699
(g8
Ntp12700
(g10
Ntp12701
g21
tp12702
g21
tp12703
F3.9563243656102687
saI1587
aa(lp12704
(dp12705
(((g3
g4
tp12706
(g6
Ntp12707
(g8
Ntp12708
(g10
Ntp12709
g21
tp12710
Ntp12711
F1.0
saI1588
aa(lp12712
(dp12713
(((g3
g4
tp12714
(g6
Ntp12715
(g8
Ntp12716
(g10
Ntp12717
g21
tp12718
Ntp12719
F1.0
saI1589
aa(lp12720
(dp12721
(((g3
g41
tp12722
(g6
Ntp12723
(g8
Ntp12724
(g10
Ntp12725
g21
tp12726
g21
tp12727
F3.6628757107687284
saI1590
aa(lp12728
(dp12729
(((g3
g41
tp12730
(g6
Ntp12731
(g8
Ntp12732
(g10
Ntp12733
g21
tp12734
g21
tp12735
F3.413444354153419
saI1591
aa(lp12736
(dp12737
(((g3
g41
tp12738
(g6
Ntp12739
(g8
Ntp12740
(g10
Ntp12741
g10
tp12742
g10
tp12743
F3.4658341810582045
saI1592
aa(lp12744
(dp12745
(((g3
g4
tp12746
(g6
Ntp12747
(g8
Ntp12748
(g10
Ntp12749
g21
tp12750
Ntp12751
F1.0
saI1593
aa(lp12752
(dp12753
(((g3
g41
tp12754
(g6
Ntp12755
(g8
Ntp12756
(g10
Ntp12757
g21
tp12758
g21
tp12759
F4.701427701030406
saI1594
aa(lp12760
(dp12761
(((g3
g41
tp12762
(g6
Ntp12763
(g8
Ntp12764
(g10
Ntp12765
g10
tp12766
g10
tp12767
F3.245959053899474
saI1595
aa(lp12768
(dp12769
(((g3
g4
tp12770
(g6
Ntp12771
(g8
Ntp12772
(g10
Ntp12773
g8
tp12774
g8
tp12775
F2.1943626266869676
saI1596
aa(lp12776
(dp12777
(((g3
g4
tp12778
(g6
Ntp12779
(g8
Ntp12780
(g10
Ntp12781
g10
tp12782
Ntp12783
F1.0
saI1597
aa(lp12784
(dp12785
(((g3
g4
tp12786
(g6
Ntp12787
(g8
Ntp12788
(g10
Ntp12789
g10
tp12790
Ntp12791
F1.0
saI1598
aa(lp12792
(dp12793
(((g3
g4
tp12794
(g6
Ntp12795
(g8
Ntp12796
(g10
Ntp12797
g10
tp12798
Ntp12799
F1.0
saI1599
aa(lp12800
(dp12801
(((g3
g41
tp12802
(g6
Ntp12803
(g8
Ntp12804
(g10
Ntp12805
g10
tp12806
g10
tp12807
F3.059065195814553
saI1600
aa(lp12808
(dp12809
(((g3
g4
tp12810
(g6
Ntp12811
(g8
Ntp12812
(g10
Ntp12813
g21
tp12814
Ntp12815
F1.0
saI1601
aa(lp12816
(dp12817
(((g3
g4
tp12818
(g6
Ntp12819
(g8
Ntp12820
(g10
Ntp12821
g21
tp12822
Ntp12823
F1.0
saI1602
aa(lp12824
(dp12825
(((g3
g4
tp12826
(g6
Ntp12827
(g8
Ntp12828
(g10
Ntp12829
g21
tp12830
Ntp12831
F1.0
saI1603
aa(lp12832
(dp12833
(((g3
g4
tp12834
(g6
Ntp12835
(g8
Ntp12836
(g10
Ntp12837
g21
tp12838
Ntp12839
F1.0
saI1604
aa(lp12840
(dp12841
(((g3
g41
tp12842
(g6
Ntp12843
(g8
Ntp12844
(g10
Ntp12845
g21
tp12846
g21
tp12847
F4.296213545875845
saI1605
aa(lp12848
(dp12849
(((g3
g41
tp12850
(g6
Ntp12851
(g8
Ntp12852
(g10
Ntp12853
g21
tp12854
g21
tp12855
F3.951781513994468
saI1606
aa(lp12856
(dp12857
(((g3
g41
tp12858
(g6
Ntp12859
(g8
Ntp12860
(g10
Ntp12861
g21
tp12862
g21
tp12863
F3.6590142868952977
saI1607
aa(lp12864
(dp12865
(((g3
g4
tp12866
(g6
Ntp12867
(g8
Ntp12868
(g10
Ntp12869
g21
tp12870
Ntp12871
F1.0
saI1608
aa(lp12872
(dp12873
(((g3
g4
tp12874
(g6
Ntp12875
(g8
Ntp12876
(g10
Ntp12877
g21
tp12878
Ntp12879
F1.0
saI1609
aa(lp12880
(dp12881
(((g3
g41
tp12882
(g6
Ntp12883
(g8
Ntp12884
(g10
Ntp12885
g21
tp12886
g21
tp12887
F3.4101621438610032
saI1610
aa(lp12888
(dp12889
(((g3
g4
tp12890
(g6
Ntp12891
(g8
Ntp12892
(g10
Ntp12893
g10
tp12894
Ntp12895
F1.0
saI1611
aa(lp12896
(dp12897
(((g3
g4
tp12898
(g6
Ntp12899
(g8
Ntp12900
(g10
Ntp12901
g10
tp12902
Ntp12903
F1.0
saI1612
aa(lp12904
(dp12905
(((g3
g4
tp12906
(g6
Ntp12907
(g8
Ntp12908
(g10
Ntp12909
g10
tp12910
g21
tp12911
F-1.0
saI1613
aa(lp12912
(dp12913
(((g3
g4
tp12914
(g6
Ntp12915
(g8
Ntp12916
(g10
Ntp12917
g10
tp12918
Ntp12919
F1.0
saI1614
aa(lp12920
(dp12921
(((g3
g41
tp12922
(g6
Ntp12923
(g8
Ntp12924
(g10
Ntp12925
g10
tp12926
g10
tp12927
F2.90020541644237
saI1615
aa(lp12928
(dp12929
(((g3
g41
tp12930
(g6
Ntp12931
(g8
Ntp12932
(g10
Ntp12933
g21
tp12934
g21
tp12935
F3.1986378222818526
saI1616
aa(lp12936
(dp12937
(((g3
g4
tp12938
(g6
Ntp12939
(g8
Ntp12940
(g10
Ntp12941
g21
tp12942
Ntp12943
F1.0
saI1617
aa(lp12944
(dp12945
(((g3
g4
tp12946
(g6
Ntp12947
(g8
Ntp12948
(g10
Ntp12949
g21
tp12950
Ntp12951
F1.0
saI1618
aa(lp12952
(dp12953
(((g3
g41
tp12954
(g6
Ntp12955
(g8
Ntp12956
(g10
Ntp12957
g21
tp12958
g21
tp12959
F3.0188421489395747
saI1619
aa(lp12960
(dp12961
(((g3
g4
tp12962
(g6
Ntp12963
(g8
Ntp12964
(g10
Ntp12965
g21
tp12966
Ntp12967
F1.0
saI1620
aa(lp12968
(dp12969
(((g3
g4
tp12970
(g6
Ntp12971
(g8
Ntp12972
(g10
Ntp12973
g21
tp12974
Ntp12975
F1.0
saI1621
aa(lp12976
(dp12977
(((g3
g4
tp12978
(g6
Ntp12979
(g8
Ntp12980
(g10
Ntp12981
g21
tp12982
Ntp12983
F1.0
saI1622
aa(lp12984
(dp12985
(((g3
g4
tp12986
(g6
Ntp12987
(g8
Ntp12988
(g10
Ntp12989
g21
tp12990
Ntp12991
F1.0
saI1623
aa(lp12992
(dp12993
(((g3
g4
tp12994
(g6
Ntp12995
(g8
Ntp12996
(g10
Ntp12997
g21
tp12998
Ntp12999
F1.0
saI1624
aa(lp13000
(dp13001
(((g3
g41
tp13002
(g6
Ntp13003
(g8
Ntp13004
(g10
Ntp13005
g21
tp13006
g21
tp13007
F2.8660158265986384
saI1625
aa(lp13008
(dp13009
(((g3
g4
tp13010
(g6
Ntp13011
(g8
Ntp13012
(g10
Ntp13013
g21
tp13014
Ntp13015
F1.0
saI1626
aa(lp13016
(dp13017
(((g3
g4
tp13018
(g6
Ntp13019
(g8
Ntp13020
(g10
Ntp13021
g21
tp13022
Ntp13023
F1.0
saI1627
aa(lp13024
(dp13025
(((g3
g4
tp13026
(g6
Ntp13027
(g8
Ntp13028
(g10
Ntp13029
g21
tp13030
Ntp13031
F1.0
saI1628
aa(lp13032
(dp13033
(((g3
g4
tp13034
(g6
Ntp13035
(g8
Ntp13036
(g10
Ntp13037
g21
tp13038
Ntp13039
F1.0
saI1629
aa(lp13040
(dp13041
(((g3
g4
tp13042
(g6
Ntp13043
(g8
Ntp13044
(g10
Ntp13045
g21
tp13046
Ntp13047
F1.0
saI1630
aa(lp13048
(dp13049
(((g3
g41
tp13050
(g6
Ntp13051
(g8
Ntp13052
(g10
Ntp13053
g21
tp13054
g21
tp13055
F2.7361134526088424
saI1631
aa(lp13056
(dp13057
(((g3
g41
tp13058
(g6
Ntp13059
(g8
Ntp13060
(g10
Ntp13061
g21
tp13062
g21
tp13063
F2.6256964347175162
saI1632
aa(lp13064
(dp13065
(((g3
g41
tp13066
(g6
Ntp13067
(g8
Ntp13068
(g10
Ntp13069
g10
tp13070
g10
tp13071
F2.7651746039760146
saI1633
aa(lp13072
(dp13073
(((g3
g4
tp13074
(g6
Ntp13075
(g8
Ntp13076
(g10
Ntp13077
g21
tp13078
Ntp13079
F1.0
saI1634
aa(lp13080
(dp13081
(((g3
g4
tp13082
(g6
Ntp13083
(g8
Ntp13084
(g10
Ntp13085
g21
tp13086
Ntp13087
F1.0
saI1635
aa(lp13088
(dp13089
(((g3
g4
tp13090
(g6
Ntp13091
(g8
Ntp13092
(g10
Ntp13093
g21
tp13094
Ntp13095
F1.0
saI1636
aa(lp13096
(dp13097
(((g3
g4
tp13098
(g6
Ntp13099
(g8
Ntp13100
(g10
Ntp13101
g21
tp13102
Ntp13103
F1.0
saI1637
aa(lp13104
(dp13105
(((g3
g41
tp13106
(g6
Ntp13107
(g8
Ntp13108
(g10
Ntp13109
g21
tp13110
g21
tp13111
F4.031841969509888
saI1638
aa(lp13112
(dp13113
(((g3
g41
tp13114
(g6
Ntp13115
(g8
Ntp13116
(g10
Ntp13117
g8
tp13118
g8
tp13119
F2.0059560375432524
saI1639
aa(lp13120
(dp13121
(((g3
g41
tp13122
(g6
Ntp13123
(g8
Ntp13124
(g10
Ntp13125
g8
tp13126
g8
tp13127
F2.0050626319117644
saI1640
aa(lp13128
(dp13129
(((g3
g41
tp13130
(g6
Ntp13131
(g8
Ntp13132
(g10
Ntp13133
g10
tp13134
g10
tp13135
F2.6503984133796124
saI1641
aa(lp13136
(dp13137
(((g3
g4
tp13138
(g6
Ntp13139
(g8
Ntp13140
(g10
Ntp13141
g21
tp13142
Ntp13143
F1.0
saI1642
aa(lp13144
(dp13145
(((g3
g4
tp13146
(g6
Ntp13147
(g8
Ntp13148
(g10
Ntp13149
g21
tp13150
Ntp13151
F1.0
saI1643
aa(lp13152
(dp13153
(((g3
g41
tp13154
(g6
Ntp13155
(g8
Ntp13156
(g10
Ntp13157
g21
tp13158
g21
tp13159
F3.727065674083405
saI1644
aa(lp13160
(dp13161
(((g3
g4
tp13162
(g6
Ntp13163
(g8
Ntp13164
(g10
Ntp13165
g21
tp13166
Ntp13167
F1.0
saI1645
aa(lp13168
(dp13169
(((g3
g4
tp13170
(g6
Ntp13171
(g8
Ntp13172
(g10
Ntp13173
g21
tp13174
Ntp13175
F1.0
saI1646
aa(lp13176
(dp13177
(((g3
g41
tp13178
(g6
Ntp13179
(g8
Ntp13180
(g10
Ntp13181
g21
tp13182
g21
tp13183
F3.4680058229708943
saI1647
aa(lp13184
(dp13185
(((g3
g4
tp13186
(g6
Ntp13187
(g8
Ntp13188
(g10
Ntp13189
g10
tp13190
Ntp13191
F1.0
saI1648
aa(lp13192
(dp13193
(((g3
g4
tp13194
(g6
Ntp13195
(g8
Ntp13196
(g10
Ntp13197
g10
tp13198
Ntp13199
F1.0
saI1649
aa(lp13200
(dp13201
(((g3
g4
tp13202
(g6
Ntp13203
(g8
Ntp13204
(g10
Ntp13205
g10
tp13206
Ntp13207
F1.0
saI1650
aa(lp13208
(dp13209
(((g3
g41
tp13210
(g6
Ntp13211
(g8
Ntp13212
(g10
Ntp13213
g10
tp13214
g10
tp13215
F4.052838651372671
saI1651
aa.